Archive member included because of file (symbol)

drivers/net/sk98lin/libsk98lin.o(uboot_drv.o)
                              board/mv_ebu/a38x/liba38x.o (skge_initialize)
drivers/net/sk98lin/libsk98lin.o(uboot_skb.o)
                              drivers/net/sk98lin/libsk98lin.o(uboot_drv.o) (alloc_skb)
drivers/net/sk98lin/libsk98lin.o(sky2.o)
                              drivers/net/sk98lin/libsk98lin.o(uboot_drv.o) (SkY2Xmit)
drivers/net/sk98lin/libsk98lin.o(skge.o)
                              drivers/net/sk98lin/libsk98lin.o(uboot_drv.o) (skge_probe)
drivers/net/sk98lin/libsk98lin.o(sky2le.o)
                              drivers/net/sk98lin/libsk98lin.o(sky2.o) (SkGeY2InitSingleLETable)
drivers/net/sk98lin/libsk98lin.o(skdim.o)
                              drivers/net/sk98lin/libsk98lin.o(skge.o) (SkDimModerate)
drivers/net/sk98lin/libsk98lin.o(skaddr.o)
                              drivers/net/sk98lin/libsk98lin.o(skge.o) (SkAddrInit)
drivers/net/sk98lin/libsk98lin.o(skgeinit.o)
                              drivers/net/sk98lin/libsk98lin.o(sky2.o) (SkGeRxCsum)
drivers/net/sk98lin/libsk98lin.o(skgesirq.o)
                              drivers/net/sk98lin/libsk98lin.o(sky2.o) (SkGeSirqIsr)
drivers/net/sk98lin/libsk98lin.o(sktwsi.o)
                              drivers/net/sk98lin/libsk98lin.o(skgeinit.o) (SkI2cWaitIrq)
drivers/net/sk98lin/libsk98lin.o(sklm80.o)
                              drivers/net/sk98lin/libsk98lin.o(sktwsi.o) (SkLm80ReadSensor)
drivers/net/sk98lin/libsk98lin.o(skqueue.o)
                              drivers/net/sk98lin/libsk98lin.o(skge.o) (SkEventInit)
drivers/net/sk98lin/libsk98lin.o(skrlmt.o)
                              drivers/net/sk98lin/libsk98lin.o(skgesirq.o) (SkRlmtEvent)
drivers/net/sk98lin/libsk98lin.o(sktimer.o)
                              drivers/net/sk98lin/libsk98lin.o(skdim.o) (SkTimerStop)
drivers/net/sk98lin/libsk98lin.o(skxmac2.o)
                              drivers/net/sk98lin/libsk98lin.o(skgesirq.o) (SkGmPhyRead)
drivers/net/sk98lin/libsk98lin.o(skgehwt.o)
                              drivers/net/sk98lin/libsk98lin.o(sktimer.o) (SkHwtInit)
/opt/Marvell_toolchain_2014T2/le/armv7-marvell-linux-gnueabi-softfp_i686_64K_Dev_20131002/bin/../lib/gcc/arm-marvell-linux-gnueabi/4.6.4/libgcc.a(_udivsi3.o)
                              arch/arm/cpu/armv7/mvca9/libmvca9.o (__aeabi_uidiv)
/opt/Marvell_toolchain_2014T2/le/armv7-marvell-linux-gnueabi-softfp_i686_64K_Dev_20131002/bin/../lib/gcc/arm-marvell-linux-gnueabi/4.6.4/libgcc.a(_divsi3.o)
                              board/mv_ebu/common/libmv_ebu.o (__aeabi_idiv)
/opt/Marvell_toolchain_2014T2/le/armv7-marvell-linux-gnueabi-softfp_i686_64K_Dev_20131002/bin/../lib/gcc/arm-marvell-linux-gnueabi/4.6.4/libgcc.a(_lshrdi3.o)
                              common/libcommon.o (__aeabi_llsr)
/opt/Marvell_toolchain_2014T2/le/armv7-marvell-linux-gnueabi-softfp_i686_64K_Dev_20131002/bin/../lib/gcc/arm-marvell-linux-gnueabi/4.6.4/libgcc.a(_ashldi3.o)
                              board/mv_ebu/common/libmv_ebu.o (__aeabi_llsl)
/opt/Marvell_toolchain_2014T2/le/armv7-marvell-linux-gnueabi-softfp_i686_64K_Dev_20131002/bin/../lib/gcc/arm-marvell-linux-gnueabi/4.6.4/libgcc.a(_aeabi_uldivmod.o)
                              drivers/mmc/libmmc.o (__aeabi_uldivmod)
/opt/Marvell_toolchain_2014T2/le/armv7-marvell-linux-gnueabi-softfp_i686_64K_Dev_20131002/bin/../lib/gcc/arm-marvell-linux-gnueabi/4.6.4/libgcc.a(_dvmd_lnx.o)
                              /opt/Marvell_toolchain_2014T2/le/armv7-marvell-linux-gnueabi-softfp_i686_64K_Dev_20131002/bin/../lib/gcc/arm-marvell-linux-gnueabi/4.6.4/libgcc.a(_udivsi3.o) (__aeabi_idiv0)
/opt/Marvell_toolchain_2014T2/le/armv7-marvell-linux-gnueabi-softfp_i686_64K_Dev_20131002/bin/../lib/gcc/arm-marvell-linux-gnueabi/4.6.4/libgcc.a(bpabi.o)
                              /opt/Marvell_toolchain_2014T2/le/armv7-marvell-linux-gnueabi-softfp_i686_64K_Dev_20131002/bin/../lib/gcc/arm-marvell-linux-gnueabi/4.6.4/libgcc.a(_aeabi_uldivmod.o) (__gnu_uldivmod_helper)
/opt/Marvell_toolchain_2014T2/le/armv7-marvell-linux-gnueabi-softfp_i686_64K_Dev_20131002/bin/../lib/gcc/arm-marvell-linux-gnueabi/4.6.4/libgcc.a(_divdi3.o)
                              /opt/Marvell_toolchain_2014T2/le/armv7-marvell-linux-gnueabi-softfp_i686_64K_Dev_20131002/bin/../lib/gcc/arm-marvell-linux-gnueabi/4.6.4/libgcc.a(bpabi.o) (__divdi3)
/opt/Marvell_toolchain_2014T2/le/armv7-marvell-linux-gnueabi-softfp_i686_64K_Dev_20131002/bin/../lib/gcc/arm-marvell-linux-gnueabi/4.6.4/libgcc.a(_udivdi3.o)
                              /opt/Marvell_toolchain_2014T2/le/armv7-marvell-linux-gnueabi-softfp_i686_64K_Dev_20131002/bin/../lib/gcc/arm-marvell-linux-gnueabi/4.6.4/libgcc.a(bpabi.o) (__udivdi3)

Memory Configuration

Name             Origin             Length             Attributes
*default*        0x00000000         0xffffffff

Linker script and memory map

                0x00000000                . = 0x0
                0x00000000                . = ALIGN (0x4)

.text           0x00000000    0x96178
                0x00000000                __image_copy_start = .
 arch/arm/cpu/armv7/start.o(.text*)
 .text          0x00000000      0x560 arch/arm/cpu/armv7/start.o
                0x00000000                _start
                0x00000040                _end_vect
                0x00000040                _TEXT_BASE
                0x00000044                _bss_start_ofs
                0x00000048                _image_copy_end_ofs
                0x0000004c                _bss_end_ofs
                0x00000050                _end_ofs
                0x00000054                IRQ_STACK_START_IN
                0x000000bc                relocate_code
                0x00000174                c_runtime_cpu_setup
                0x00000190                save_boot_params
                0x00000194                cpu_init_cp15
                0x000001cc                cpu_init_crit
                0x00000480                armv7_mmu_cache_flush
 *(.text*)
 .text          0x00000560      0xe70 api/libapi.o
                0x00000b90                syscall
                0x00000bf8                api_init
                0x00000d90                platform_set_mr
                0x00000df0                display_get_info
                0x00000e00                display_draw_bitmap
                0x00000e10                display_clear
                0x00000e14                dev_open_net
                0x00000e4c                dev_close_net
                0x00000e78                dev_enum_net
                0x00000ebc                dev_write_net
                0x00000ec8                dev_read_net
                0x000010b8                dev_stor_init
                0x00001158                dev_enum_reset
                0x00001190                dev_enum_storage
                0x0000129c                dev_open_stor
                0x000012d0                dev_close_stor
                0x000012d8                dev_read_stor
                0x00001388                platform_sys_info
 .text          0x000013d0       0xe8 arch/arm/cpu/armv7/libarmv7.o
                0x000013d0                invalidate_dcache_all
                0x000013d4                flush_dcache_all
                0x000013d8                invalidate_dcache_range
                0x000013dc                flush_dcache_range
                0x000013e0                arm_init_before_mmu
                0x000013e4                flush_cache
                0x000013e8                mmu_page_table_flush
                0x000013ec                invalidate_icache_all
                0x00001404                __v7_outer_cache_enable
                0x00001404                v7_outer_cache_enable
                0x00001408                v7_outer_cache_disable
                0x00001408                __v7_outer_cache_disable
                0x0000140c                __v7_outer_cache_flush_all
                0x0000140c                v7_outer_cache_flush_all
                0x00001410                v7_outer_cache_inval_all
                0x00001410                __v7_outer_cache_inval_all
                0x00001414                v7_outer_cache_flush_range
                0x00001414                __v7_outer_cache_flush_range
                0x00001418                __v7_outer_cache_inval_range
                0x00001418                v7_outer_cache_inval_range
                0x0000141c                cpu_cache_initialization
                0x00001420                cleanup_before_linux
                0x0000144c                sdelay
                0x00001458                sr32
                0x00001480                wait_on_value
 .text          0x000014b8      0x1e4 arch/arm/cpu/armv7/mvca9/libmvca9.o
                0x000014b8                set_timer
                0x000014c8                reset_timer_masked
                0x000014f8                reset_timer
                0x000014fc                timer_init
                0x00001550                __udelay
                0x000015d4                get_timer_masked
                0x00001620                get_timer
                0x00001638                udelay_masked
                0x00001680                get_ticks
                0x00001694                get_tbclk
 .text          0x0000169c      0xf0c arch/arm/lib/libarm.o
                0x0000169c                _main
                0x00001780                coloured_LED_init
                0x00001780                __coloured_LED_init
                0x00001784                __red_led_on
                0x00001784                red_led_on
                0x00001788                __red_led_off
                0x00001788                red_led_off
                0x0000178c                green_led_on
                0x0000178c                __green_led_on
                0x00001790                green_led_off
                0x00001790                __green_led_off
                0x00001794                yellow_led_on
                0x00001794                __yellow_led_on
                0x00001798                __yellow_led_off
                0x00001798                yellow_led_off
                0x0000179c                blue_led_on
                0x0000179c                __blue_led_on
                0x000017a0                __blue_led_off
                0x000017a0                blue_led_off
                0x000017a4                display_dram_config
                0x000017f0                __dram_init_banksize
                0x0000180c                arch_cpu_init
                0x0000180c                __arch_cpu_init
                0x00001814                __power_init_board
                0x00001814                power_init_board
                0x0000181c                hang
                0x00001830                board_init_r
                0x00001938                board_init_f
                0x00001abc                arch_lmb_reserve
                0x00001ae0                fixup_memory_node
                0x00001b78                setup_board_tags
                0x0000216c                do_bootm_linux
                0x000021c4                bootz_setup
                0x0000220c                interrupt_init
                0x00002228                enable_interrupts
                0x0000222c                disable_interrupts
                0x00002234                bad_mode
                0x00002244                show_regs
                0x00002388                do_undefined_instruction
                0x000023a8                do_software_interrupt
                0x000023c8                do_prefetch_abort
                0x000023e8                do_data_abort
                0x00002408                do_not_used
                0x00002428                do_fiq
                0x00002448                do_irq
                0x00002468                do_reset
                0x00002498                __flush_cache
                0x0000249c                __flush_dcache_all
                0x000024a8                __enable_caches
                0x000024e4                __arm_init_before_mmu
                0x000024e8                set_section_dcache
                0x000024fc                __mmu_page_table_flush
                0x00002500                mmu_set_region_dcache_behaviour
                0x00002550                icache_enable
                0x0000256c                icache_disable
                0x0000258c                icache_status
                0x00002598                dcache_enable
                0x0000259c                dcache_disable
                0x000025a0                dcache_status
 .text          0x000025a8    0x24254 board/mv_ebu/common/libmv_ebu.o
                0x000025a8                mvCharToHex
                0x000025e8                mvCharToDigit
                0x000025fc                mvMacStrToHex
                0x00002654                mvMacHexToStr
                0x0000269c                mvSizePrint
                0x000027b4                mvHexToBin
                0x00002810                mvAsciiToHex
                0x00002858                mvBinToHex
                0x000028ac                mvBinToAscii
                0x00002900                mvLog2
                0x0000292c                mvWinOverlapTest
                0x00002934                mvWinWithinWinTest
                0x000029e8                mvReverseBits
                0x00002a18                mvCountMaskBits
                0x00002a3c                mvOsCpuRevGet
                0x00002a48                mvOsCpuPartGet
                0x00002a54                mvOsCpuArchGet
                0x00002a60                mvOsCpuVarGet
                0x00002a6c                mvOsCpuAsciiGet
                0x00002a78                mvOsCpuThumbEEGet
                0x00002a84                mvOsIoVirtToPhy
                0x00002a8c                mvOsIoUncachedMalloc
                0x00002aa8                mvOsIoUncachedFree
                0x00002ab0                mvOsIoUncachedAlignedMalloc
                0x00002af4                mvOsIoUncachedAlignedFree
                0x00002afc                mvOsIoCachedMalloc
                0x00002b18                mvOsIoCachedFree
                0x00002b20                mvOsCacheFlush
                0x00002b28                mvOsCacheInvalidate
                0x00002b30                mvOsRand
                0x00002b38                mvOsStrCmp
                0x00002b9c                mvSwapShort
                0x00002ba0                mvSwapWord
                0x00002ba4                mvSpi16bitDataTxRx
                0x00002c28                mvSpiCsSet
                0x00002c7c                mvSpiIfConfigSet
                0x00002cd0                mvSpiTimingParamsSet
                0x00002d1c                mvSpiBaudRateSet
                0x00002e08                mvSpiParamsSet
                0x00002eb8                mvSpiCsAssert
                0x00002ef0                mvSpiCsDeassert
                0x00002f10                mvSpiInit
                0x00002ff4                mvSpi8bitDataTxRx
                0x000030e0                mvSpiRead
                0x000031dc                mvSpiWrite
                0x000032d8                mvSpiReadWrite
                0x000033f8                mvSpiIfByteLenSet
                0x00003420                mvSpiReadAndWrite
                0x0000349c                mvSpiWriteThenWrite
                0x00003558                mvSpiWriteThenRead
                0x000036ac                mvNfcInit
                0x000042ec                mvNfcSelectChip
                0x000042f8                mvNfcDataLength
                0x00004394                mvNfcTransferDataLength
                0x00004500                mvNfcCommandPio
                0x00004b58                mvNfcStatusGet
                0x00004c08                mvNfcIntrSet
                0x00004c88                mvNfcIntrToStatusConvert
                0x00004cec                mvNfcReadWrite
                0x00004dc0                mvNfcReadWritePio
                0x00004e70                mvNfcAddress2RowConvert
                0x00004ee4                mvNfcAddress2BlockConvert
                0x00004f20                mvNfcFlashModelGet
                0x00004f48                mvNfcFlashPageSizeGet
                0x00004ffc                mvNfcFlashBlockSizeGet
                0x0000505c                mvNfcFlashBlockNumGet
                0x000050a0                mvNfcFlashIdGet
                0x000050e4                mvNfcUnitStateStore
                0x00005168                mvNfcReset
                0x000051e8                mvNfcEccModeSet
                0x000051f8                mvNfcBadBlockPageNumber
                0x00005214                mvNfcPrintParamPage
                0x000053c4                mvXorCtrlSet
                0x000053fc                mvXorEccCurrTimerGet
                0x0000541c                mvXorStateGet
                0x00005468                mvXorTransfer
                0x00005540                mvXorMemInit
                0x00005658                mvXorEccClean
                0x00005788                mvXorCommandSet
                0x000058c4                mvXorHalInit
                0x00005904                mvXorOverrideSet
                0x0000599c                mvXorOverrideDisable
                0x000059c4                xorSetSrcBurstLimit
                0x000059f4                mvXorTargetWinRead
                0x00005bd4                mvXorTargetWinWrite
                0x00005d40                mvXorTargetWinEnable
                0x00005e30                mvXorWinInit
                0x00005ed8                mvXorProtWinSet
                0x00005f4c                mvXorPciRemap
                0x00005f74                mvDramIfHwSizeGet
                0x00005ff0                mvDramIfHwCsSizeGet
                0x00006014                mvDramIfWinGet
                0x0000611c                mvDramIfWinSet
                0x000061f4                mvDramIfBankSizeGet
                0x00006224                mvDramIfSizeGet
                0x00006254                mvDramIfWinEnable
                0x000062f8                mvDdrPhyRegRead
                0x0000632c                mvDdrPhyRegWrite
                0x0000635c                mvDramIfSingleBitErrThresholdSet
                0x0000638c                mvEthPhyHalInit
                0x000063b0                mvEthPhyInit
                0x000063e0                mvEthPhyRegRead
                0x000064f4                rdPhy
                0x00006538                mvEthPhyRegPrint
                0x00006588                mvEthPhyRegs
                0x00006610                mvEthPhyRegWrite
                0x0000686c                mvEthPhyReset
                0x000068f8                mvEthPhyRestartAN
                0x00006994                mvEthPhyDisableAN
                0x00006a74                mvEthPhyLoopback
                0x00006bd8                mvEthPhyCheckLink
                0x00006c68                mvEthPhyPrintStatus
                0x00006d54                mvEthPhyAdvertiseSet
                0x00006dc8                mvEthPhyAdvertiseGet
                0x00006e1c                mvEthE1111PhyBasicInit
                0x00006eb0                mvEthInternalQuadGEPhyBasicInit
                0x00006f34                mvEthE1112PhyBasicInit
                0x00006fe4                mvEthE1310PhyBasicInit
                0x000070a4                mvEthE1116PhyBasicInit
                0x00007178                mvEthE3016PhyBasicInit
                0x00007214                mvEthE1011PhyBasicInit
                0x00007290                mvEthE1112PhyPowerDown
                0x00007298                mvEthE1112PhyPowerUp
                0x000072a0                mvEth1145PhyBasicInit
                0x00007344                mvEthSgmiiToCopperPhyBasicInit
                0x000073ac                mvEth1121PhyBasicInit
                0x0000746c                mvEthInternalGEPhyBasicInit
                0x00007470                mvEth1540Y0PhyBasicInit
                0x00007de4                mvEth1540A1PhyBasicInit
                0x000081fc                mvEth1540A0PhyBasicInit
                0x000088e8                mvEth1540PhyBasicInit
                0x000089b8                mvEth1340PhyBasicInit
                0x00008a70                mvEthE1512PhyBasicInit
                0x00008bb4                mvEthPhyAddGet
                0x00008bc4                mvGppInit
                0x00008be8                mvGppPolarityGet
                0x00008c0c                mvGppValueGet
                0x00008c28                gppRegSet
                0x00008c44                mvGppValueSet
                0x00008d04                mvGppPolaritySet
                0x00008d40                mvGppBlinkEn
                0x00008d7c                mvGppTypeSet
                0x00008df4                mvGppAtomicValueClear
                0x00008e44                mvGppAtomicValueSet
                0x00009024                mvTwsiStartBitSet
                0x00009100                mvTwsiStopBitSet
                0x000091c4                mvTwsiInit
                0x000093a4                mvTwsiAddrSet
                0x00009604                mvTwsiRead
                0x000098c0                mvTwsiWrite
                0x00009a08                mvTwsiProbe
                0x00009a9c                mvUartInit
                0x00009adc                mvUartPutc
                0x00009afc                mvUartGetc
                0x00009b1c                mvUartTstc
                0x00009b34                mvPciIfInit
                0x00009b80                mvPciIfConfigRead
                0x00009b84                mvPciIfConfigWrite
                0x00009b88                mvPciIfMasterEnable
                0x00009b8c                mvPciIfSlaveEnable
                0x00009b90                mvPciIfLocalBusNumSet
                0x00009b94                mvPciIfLocalBusNumGet
                0x00009b98                mvPciIfLocalDevNumSet
                0x00009b9c                mvPciIfLocalDevNumGet
                0x00009ba0                mvPciIfTypeGet
                0x00009ba8                mvPciRealIfNumGet
                0x00009bac                mvPciClassNameGet
                0x0000a4d4                mvPciScan
                0x0000a7a8                mvUsbGetCapRegAddr
                0x0000a7b4                mvUsbPhy40nmLpInit
                0x0000a89c                mvUsbPllInit
                0x0000a8ec                mvUsbUtmiPhyInit
                0x0000acf4                mvUsbHalInit
                0x0000ae2c                mvUsbPowerDown
                0x0000ae70                mvUsbPowerUp
                0x0000aeac                mvUsbRegs
                0x0000afac                mvUsbCoreRegs
                0x0000b300                mvUsbWinRead
                0x0000b3f8                mvUsbWinWrite
                0x0000b618                mvUsbWinInit
                0x0000b6e4                mvPexModeGet
                0x0000b7b0                mvPexMasterEnable
                0x0000b844                mvPexLocalBusNumSet
                0x0000b8f8                mvPexLocalBusNumGet
                0x0000b970                mvPexLocalDevNumSet
                0x0000ba28                mvPexLocalDevNumGet
                0x0000ba90                mvPexConfigWrite
                0x0000bc44                mvPexConfigRead
                0x0000bdf8                mvPexSlaveEnable
                0x0000bea0                mvPexPhyRegRead
                0x0000bf0c                mvPexPhyRegWrite
                0x0000bf6c                mvPexActiveStateLinkPMEnable
                0x0000c048                mvPexForceX1
                0x0000c0d0                mvPexIfEnable
                0x0000c1f4                mvPexPhyPowerDown
                0x0000c220                mvPexInit
                0x0000c39c                mvPexBarSet
                0x0000c588                mvPexBarGet
                0x0000c740                mvPexBarEnable
                0x0000c844                pexWinRegInfoGet
                0x0000c9f8                mvPexTargetWinRemapEnable
                0x0000ca54                mvPexTargetWinRemap
                0x0000cb14                mvPexTargetWinRead
                0x0000cbc8                mvPexTargetWinEnable
                0x0000ccbc                mvPexTargetWinWrite
                0x0000cea4                mvPexWinInit
                0x0000d0ec                pexBarNameGet
                0x0000d108                mvSdmmcWinRead
                0x0000d1ac                mvSdmmcWinWrite
                0x0000d30c                mvSdmmcWinInit
                0x0000d3ac                mvCntmrHalInit
                0x0000d3d0                mvCntmrLoad
                0x0000d440                mvCntmrRead
                0x0000d464                mvCntmrReadDiff
                0x0000d48c                mvCntmrWrite
                0x0000d4b0                mvCntmrCtrlSet
                0x0000d6b0                mvCntmrCtrlGet
                0x0000d824                mvCntmrEnable
                0x0000d888                mvCntmrDisable
                0x0000d8ec                mvCntmrStart
                0x0000d930                mvCntmrIntClear
                0x0000d98c                mvCntmrFrqGet
                0x0000f0c8                waitForBusyAfterHReset
                0x0000f124                _setActivePMPort
                0x0000f34c                disableSaDevInterrupts
                0x0000fd7c                mvSataShutdownAdapter
                0x0000fda4                mvSataReadReg
                0x0000fdbc                mvSataWriteReg
                0x0000fdcc                mvSataConfigureChannel
                0x0000febc                mvSataRemoveChannel
                0x0000fee4                mvSataIsStorageDeviceConnected
                0x0000ff9c                mvSataChannelHardReset
                0x000100a0                mvSataSetFBSMode
                0x00010110                mvSataConfigEdmaMode
                0x00010418                mvSataEnableChannelDma
                0x00010460                mvSataDisableChannelDma
                0x00010498                mvSataFlushDmaQueue
                0x000104f0                mvSataNumOfDmaCommands
                0x00010520                mvSataGetNumOfPortQueuedCommands
                0x0001056c                mvSataSetIntCoalParams
                0x000106ac                mvSataSetChannelPhyParams
                0x000107d4                mvSataChannelPhyShutdown
                0x00010870                mvSataInitAdapter
                0x0001136c                mvSataChannelPhyPowerOn
                0x0001145c                mvSataChannelFarLoopbackDiagnostic
                0x00011610                mvSataQueueCommand
                0x000117c8                mvSataSetInterruptsScheme
                0x000117dc                mvSataCheckPendingInterrupt
                0x00011814                mvSataInterruptServiceRoutine
                0x00012454                mvSataMaskAdapterInterrupt
                0x00012474                mvSataUnmaskAdapterInterrupt
                0x00012494                mvSataEnableStaggeredSpinUpAll
                0x000125e8                mvSataEnableStaggeredSpinUp
                0x00012650                mvSataDisableStaggeredSpinUp
                0x000126c8                mvSataDisableStaggeredSpinUpAll
                0x00012718                mvSataSetInterfaceSpeed
                0x000128a4                mvSataGetInterfaceSpeed
                0x0001291c                mvSataSetInterfacePowerState
                0x00012a00                mvSataGetInterfacePowerState
                0x00012a70                mvSata60X1B2CheckDevError
                0x00012b1c                mvSataIfD2HReceived
                0x00012b68                mvSataWinRead
                0x00012c0c                mvSataWinWrite
                0x00012d6c                mvSataWinInit
                0x00012e0c                waitWhileStorageDevIsBusy
                0x00012e6c                waitWhileStorageDevIsBusy_88SX60X1
                0x00012f0c                waitForDRQ
                0x00012f6c                enableStorageDevInterrupt
                0x00012f9c                disableStorageDevInterrupt
                0x00012fcc                mvStorageDevATAIdleImmediate
                0x00013060                _startSoftResetDevice
                0x000130a0                _isDeviceBsyBitOff
                0x000130c4                mvStorageDevATAStartSoftResetDevice
                0x00013114                waitForDRQToClear
                0x00013174                executeNonUDMACommand
                0x000135b8                mvStorageDevATAExecuteNonUDMACommand
                0x00013654                mvStorageDevATASetFeatures
                0x000136b0                mvStorageDevATAIdentifyDevice
                0x00013778                dumpAtaDeviceRegisters
                0x00013854                _PMAccessReg
                0x0001397c                mvStorageIsDeviceBsyBitOff
                0x000139d8                _doSoftReset
                0x00013a68                mvStorageDevATASoftResetDevice
                0x00013ae0                mvPMDevReadReg
                0x00013bb0                mvPMDevWriteReg
                0x00013c1c                mvPMLinkUp
                0x00013c84                mvPMDevEnableStaggeredSpinUp
                0x00013c8c                mvPMDevEnableStaggeredSpinUpAll
                0x00013db0                mvPMDevEnableStaggeredSpinUpPort
                0x00013e28                mvStorageDevExecutePIO
                0x00013edc                mvStorageDevSetDeviceType
                0x00013efc                mvStorageDevGetDeviceType
                0x00013f18                mvRtcTimeSet
                0x0001407c                mvRtcTimeGet
                0x00014108                mvRtcInit
                0x0001410c                mvSysSpiInit
                0x00014140                mvSysSpiMppConfig
                0x00014148                mvSysNfcInit
                0x00014188                mvSysXorInit
                0x000141cc                mvSysEthPhyInit
                0x00014250                mvSysUsbInit
                0x00014478                mvSysPexInit
                0x00014514                mvSysSDmmcWinInit
                0x00014544                mvSysCntmrInit
                0x00014574                mvSysSataWinInit
                0x000145a4                mvSysSata3WinInit
                0x000145e0                mvSata3WinRead
                0x000146c8                mvSata3WinWrite
                0x0001486c                mvSata3WinInit
                0x0001495c                mvCtrlAttribGet
                0x00014980                mvCtrlAttribSet
                0x000149a4                mvCtrlTargetGet
                0x000149f4                mvCtrlTargetByWinInfoGet
                0x00014a44                mvCtrlAddrWinMapBuild
                0x00014da4                mvCtrlAddrWinInfoGet
                0x00014e48                mvCtrlPortIsSerdesSgmii
                0x00014e68                mvCtrlGetCpuNum
                0x00014e7c                mvCtrlUpdatePexId
                0x00014e84                mvCtrlCpuDdrL2FreqGet
                0x00014f20                mvCtrlbootSrcGet
                0x00014f34                mvCtrlSSCGInit
                0x00014f84                mvCtrlDevFamilyIdGet
                0x00014f8c                mvCtrlMppRegGet
                0x00014fa0                mvCtrlSataMaxUnitGet
                0x00014fa8                mvCtrlIsActiveSataUnit
                0x00014fc4                mvCtrlUtmiPhySelectorSet
                0x00014fc8                mvCtrlTdmUnitTypeGet
                0x00014fd0                mvCtrlTdmUnitIrqGet
                0x00014fd8                mvCtrlModelGet
                0x0001506c                mvCtrlDevIdIndexGet
                0x000150b4                mvCtrlSocUnitInfoNumGet
                0x00015100                mvCtrlTdmMaxGet
                0x00015108                mvCtrlTdmSupport
                0x00015124                mvCtrlSdioSupport
                0x00015140                mvCtrlUsb3HostMaxGet
                0x00015148                mvCtrlUsb3MaxGet
                0x00015150                mvCtrlUsbMaxGet
                0x00015158                mvCtrlXorMaxUnitGet
                0x00015160                mvCtrlXorMaxChanGet
                0x00015168                mvCtrlSataMaxPortGet
                0x00015170                mvCtrlEthMaxPortGet
                0x00015178                mvCtrlEthMaxCPUsGet
                0x0001518c                mvCtrlPexActiveUnitNumGet
                0x00015194                mvCtrlPexMaxUnitGet
                0x0001519c                mvCtrlPexMaxIfGet
                0x000151a4                mvCtrlSocUnitInfoPrint
                0x00015374                mvCtrlSocUnitInfoNumSet
                0x000153f0                mvCtrlRevGet
                0x00015404                mvCtrlSerdesConfigDetect
                0x00015614                mvCtrlEnvInit
                0x000158f8                mvCtrlNameGet
                0x0001592c                mvCtrlModelRevGet
                0x00015948                mvCtrlRevNameGet
                0x000159d0                mvCtrlModelRevNameGet
                0x000159f8                mvCtrlTargetNameGet
                0x00015a18                ctrlSizeToReg
                0x00015a7c                ctrlRegToSize
                0x00015ae4                ctrlSizeRegRoundUp
                0x00015b30                mvCtrlIsBootFromNOR
                0x00015b38                mvCtrlIsBootFromSPI
                0x00015b40                mvCtrlIsBootFromNAND
                0x00015b48                mvCtrlIsDLBEnabled
                0x00015b5c                mvCtrlPwrClckSet
                0x00015c60                mvCtrlPwrClckGet
                0x00015e64                mvCtrlAddrDecShow
                0x0001617c                mvCtrlDDRBudWidth
                0x00016198                mvCtrlDDRThruXbar
                0x000161b0                mvCtrlDDRECC
                0x000161c4                mvCtrlDDRECCPUP3
                0x000161d8                mvCtrlGetJuncTemp
                0x00016268                mvCtrlNandClkSet
                0x000162c4                mvCtrlUsbMapGet
                0x000163c0                mvAhbToMbusInit
                0x000163c8                mvAhbToMbusWinGet
                0x000164d8                mvAhbToMbusWinNumByTargetGet
                0x000165a8                mvAhbToMbusWinTargetGet
                0x0001664c                mvAhbToMbusWinAvailGet
                0x000166b0                mvAhbToMbusWinEnable
                0x00016788                mvAhbToMbusWinSet
                0x00016908                mvAhbToMbusWinRemap
                0x000169cc                mvAhbToMbusWinTargetSwap
                0x00016c48                mvAhbToMbusAddDecShow
                0x00016d10                mvCpuIfVerify
                0x00016db8                mvCpuIfDramInit
                0x00016e50                mvCpuIfTargetWinGet
                0x00016fb4                mvCpuIfTargetWinSet
                0x000170c0                mvCpuIfTargetWinEnable
                0x000171ac                mvCpuIfTargetWinSizeGet
                0x00017208                mvCpuIfTargetWinBaseLowGet
                0x00017268                mvCpuIfTargetWinBaseHighGet
                0x000172c4                mvCpuIfSramWinDisable
                0x000172e8                mvCpuIfInitForCpu
                0x000174b4                mvCpuIfInit
                0x000174cc                mvCpuIfPexRemap
                0x0001752c                mvCpuIfTargetOfBaseAddressGet
                0x000175ac                mvCpuIfAddDecShow
                0x00017694                mvCpuIfLvdsPadsEnable
                0x000176d4                mvCpuPclkGet
                0x00017700                mvCpuL2ClkGet
                0x0001772c                mvCpuNameGet
                0x00017858                mvCpuIfPrintSystemConfig
                0x00017a4c                whoAmI
                0x00017a58                mvDevIfPramSet
                0x00017b54                mvDevPramGet
                0x00017be8                mvDevWidthGet
                0x00017c08                mvDevNandDevCsSet
                0x00017cf4                mvBoardIdIndexGet
                0x00017cfc                mvBoardNameGet
                0x00017d24                mvBoardModuleConfigGet
                0x00017d38                mvBoardModuleConfigSet
                0x00017dc8                mvBoardPhyAddrGet
                0x00017df4                mvBoardPhyAddrSet
                0x00017e1c                mvBoardQuadPhyAddr0Get
                0x00017e48                mvBoardSpecInitGet
                0x00017e5c                mvBoardMacSpeedGet
                0x00017eb0                mvBoardMacSpeedSet
                0x00017ef4                mvBoardIsPortLoopback
                0x00017f04                mvBoardTclkGet
                0x00017f2c                mvBoardSysClkGet
                0x00017f58                mvBoardDebugLedNumGet
                0x00017f6c                mvBoardDebugLed
                0x00017f70                mvBoarGpioPinNumGet
                0x00017fcc                mvBoardResetGpioPinGet
                0x00017fd8                mvBoardReset
                0x00018058                mvBoardUSBVbusGpioPinGet
                0x00018064                mvBoardUSBVbusEnGpioPinGet
                0x00018070                mvBoardGpioIntMaskGet
                0x000180c4                mvBoardSlicUnitTypeGet
                0x000180cc                mvBoardSlicUnitTypeSet
                0x000180d0                mvBoardMppGet
                0x000180e8                mvBoardMppSet
                0x00018100                mvBoardIsModuleConnected
                0x00018120                mvModuleMppUpdate
                0x00018164                mvBoardMppIdUpdate
                0x00018314                mvBoardBootAttrGet
                0x0001835c                mvBoardBootDeviceGet
                0x000183ac                mvBoardBootDeviceGroupSet
                0x00018400                mvBoardIsInternalSwitchConnected
                0x00018408                mvBoardSwitchPortsMaskGet
                0x00018410                mvBoardSwitchPortForceLinkGet
                0x00018418                mvBoardConfigWrite
                0x00018494                mvBoardMppModuleTypePrint
                0x00018504                mvBoardOtherModuleTypePrint
                0x00018508                mvBoardIsGbEPortConnected
                0x00018544                mvBoardGetDevicesNumber
                0x00018590                mvBoardGetDeviceBaseAddr
                0x000185b8                mvBoardGetDeviceBusWidth
                0x000185d4                mvBoardGetDeviceWidth
                0x000185f0                mvBoardGetDeviceWinSize
                0x00018618                boardGetDevCSNum
                0x00018634                mvBoardTwsiAddrTypeGet
                0x00018690                mvBoardTwsiAddrGet
                0x000186e8                mvBoardTwsiAddrSet
                0x00018738                mvBoardTwsiIsMore256Get
                0x00018790                mvBoardNetComplexConfigGet
                0x000187a8                mvBoardNetComplexConfigSet
                0x000187c0                mvBoardExtPhyBufferSelect
                0x000187c8                mvBoardNandWidthGet
                0x00018814                mvBoardSet
                0x00018878                mvBoardIdGet
                0x00018894                mvBoardModuleTypeGet
                0x00018948                mvBoardSatrInfoConfig
                0x000189dc                mvBoardModelGet
                0x000189f0                mvBoardTwsiGet
                0x00018a9c                mvBoardRevGet
                0x00018af8                mvBoardEnvInit
                0x00018df0                mvBoardTwsiSet
                0x00018e9c                mvBoardCpuCoresNumGet
                0x00018ea4                mvBoardIsSetmModuleConnected
                0x00018eac                mvBoardIsLcdDviModuleConnected
                0x00018eb4                mvBoardTwsiMuxChannelSet
                0x00018ebc                mvBoardSmiScanModeGet
                0x00018ec4                mvBoardSwitchCpuPortGet
                0x00018ecc                mvBoardIsEthActive
                0x00018ed0                mvBoardGePhySwitchPortGet
                0x00018ed8                mvBoardRgmiiASwitchPortGet
                0x00018ee0                mvBoardSwitchPortMap
                0x00018ee8                mvBoardPexInfoGet
                0x00018efc                mvBoardConfigAutoDetectEnabled
                0x00018f10                mvBoardTwsiSatRGet
                0x00018fc4                mvBoardTwsiSatRSet
                0x00019078                mvBoardSatRRead
                0x00019180                mvBoardSatRWrite
                0x000192ac                mvBoardNorFlashConnect
                0x000192c8                mvBoardIoExpanderGet
                0x00019334                mvBoardIoExpanderSet
                0x0001939c                mvBoardIoExpanderUpdate
                0x00019508                mvBoardUartPortGet
                0x00019534                mvBoardNandECCModeGet
                0x0001959c                mvBoardNandIfGet
                0x000195ec                mvBoardIsPortInSgmii
                0x000195f0                mvBoardIsPortInMii
                0x00019618                mvBoardIsPortInGmii
                0x00019630                mvBoardIsPortInRgmii
                0x00019670                mvBoardInfoUpdate
                0x00019730                mvBoardIsEthConnected
                0x00019734                spi_init
                0x00019738                spi_setup_slave
                0x00019788                spi_free_slave
                0x0001978c                spi_claim_bus
                0x00019794                spi_release_bus
                0x00019798                spi_cs_is_valid
                0x000197ac                spi_cs_activate
                0x000197cc                spi_cs_deactivate
                0x000197d4                spi_xfer
                0x00019878                spi_flash_init
                0x000198cc                board_flash_get_legacy
                0x00019930                board_nand_init
                0x00019938                mv_serial_tstc
                0x00019948                mv_serial_getc
                0x0001995c                mv_serial_putc
                0x0001998c                mv_serial_setbrg
                0x000199cc                mv_serial_init
                0x00019a1c                mv_serial_puts
                0x00019a40                mv_serial_initialize
                0x00019a4c                default_serial_console
                0x00019a58                i2c_init
                0x00019aa8                i2c_read
                0x00019b1c                i2c_write
                0x00019b90                i2c_probe
                0x00019bf8                i2c_set_bus_num
                0x00019c14                i2c_get_bus_num
                0x00019c24                i2c_set_bus_speed
                0x00019c70                i2c_get_bus_speed
                0x00019e38                tsc2005_configuration
                0x00019ebc                mv_ts_init
                0x00019f54                tsc2005_touched
                0x0001a120                parseIntFromString
                0x0001a1b0                recoveryHandle
                0x0001a3fc                do_rcvr
                0x0001a410                whoAmI_cmd
                0x0001a434                training_cmd
                0x0001a788                printTempMsg
                0x0001a7a4                phy_write_cmd
                0x0001a800                phy_read_cmd
                0x0001a858                displayMemoryMap_cmd
                0x0001a86c                sg_cmd
                0x0001a8c8                reset_count_cmd
                0x0001a9e4                temperature_cmd
                0x0001aa08                ir_cmd
                0x0001ac0c                xor_waiton_eng
                0x0001aca0                mvDma_cmd
                0x0001b248                mvIntrfaceWidthPrint
                0x0001b254                mvIntrfaceParamPrint
                0x0001b308                mvDramIfHwSizeGetFromWindows
                0x0001b394                dram_init
                0x0001b3b0                dram_init_banksize
                0x0001b43c                load_from_usb
                0x0001b4f4                fetch_bubt_cmd_args
                0x0001b63c                fetch_uboot_file
                0x0001b6ac                spi_burn_uboot_cmd
                0x0001b89c                resetenv_cmd
                0x0001b950                mvDramCsSizeGet
                0x0001b974                mvSysXorInit2
                0x0001ba04                mvSysXorFinish2
                0x0001ba30                mvDramScrubbing
                0x0001bca0                fdt_env_setup
                0x0001bd9c                ft_board_setup
                0x0001c85c                ddr_phy_write_cmd
                0x0001c8b8                ddr_phy_read_cmd
                0x0001c910                mvBoard10GPhyInit
                0x0001c918                mvBoardEgigaPhyInit
                0x0001ca08                mvEthSwitchRegRead
                0x0001cae0                mvEthSwitchRegWrite
                0x0001cc24                mvEthE6131SwitchBasicInit
                0x0001ccd0                mvEthE6063SwitchBasicInit
                0x0001ccdc                mvEthE6065_61SwitchBasicInit
                0x0001cce8                mvEthE6171SwitchBasicInit
                0x0001cf48                mvEthE6161SwitchBasicInit
                0x0001d0d0                mvEthSwitchPhyRegWrite
                0x0001d1b0                mvEthSwitchPhyRegRead
                0x0001d290                ehci_usb_alloc_device
                0x0001d298                getUsbActive
                0x0001d358                xhci_hcd_init
                0x0001d3c4                xhci_hcd_stop
                0x0001d3c8                ehci_hcd_init
                0x0001d414                ehci_hcd_stop
                0x0001d41c                usb_lowlevel_init
                0x0001d5f4                usb_lowlevel_stop
                0x0001d804                submit_int_msg
                0x0001d850                submit_bulk_msg
                0x0001d894                submit_control_msg
                0x0001d8e0                usb_alloc_device
                0x0001d924                pcie_phy_write_cmd
                0x0001d980                pcie_phy_read_cmd
                0x0001daa8                mapPci_cmd
                0x0001db90                se_cmd
                0x0001dc5c                me_cmd
                0x0001dcc8                scanPci
                0x0001df6c                sp_cmd
                0x0001e044                mv_mem_ctrl_dev
                0x0001e174                pci_skip_dev
                0x0001e17c                pci_init_board
                0x0001e6a4                mvSataEventNotify
                0x0001e7b8                do_diskboot
                0x0001eaec                mvGetSataDeviceType
                0x0001efbc                mvGetPMDeviceInfo
                0x0001f0b0                InitChannel
                0x0001f0f8                ide_init
                0x0001f86c                ide_get_dev
                0x0001f880                ide_read_write
                0x0001fd84                ide_read
                0x0001fdb4                ide_write
                0x0001fde4                do_ide
                0x00020284                board_ahci_init
                0x0002032c                rtc_get
                0x0002038c                rtc_set
                0x00020408                rtc_reset
                0x0002040c                do_sys_restore
                0x0002050c                do_active_units
                0x00020640                mvSysNetaInit
                0x000207bc                mvNetaMaxCheck
                0x0002080c                mvNetaPortCheck
                0x00020824                mvNetaTxpCheck
                0x0002085c                mvNetaCpuCheck
                0x0002086c                mvNetaPortDestroy
                0x000208c0                mvNetaAccMode
                0x000208c8                mvNetaHalInit
                0x0002095c                mvNetaRxqCpuMaskSet
                0x000209ec                mvNetaTxqCpuMaskSet
                0x00020a7c                mvEthGmacRgmiiSet
                0x00020acc                mvNetaPortPowerUp
                0x00020cb4                mvNetaPortPowerDown
                0x00020cb8                mvNetaMaxRxSizeSet
                0x00020d0c                mvNetaForceLinkModeSet
                0x00020dac                mvNetaSpeedDuplexSet
                0x00020ebc                mvNetaSpeedDuplexGet
                0x00020f6c                mvNetaFlowCtrlSet
                0x00021044                mvNetaFlowCtrlGet
                0x000210e8                mvNetaLinkIsUp
                0x00021110                mvNetaLinkStatus
                0x000211a8                mvNetaGmacLpiSet
                0x000211f8                mvNetaRxUnicastPromiscSet
                0x000212d0                mvNetaMacAddrSet
                0x000213e8                mvNetaMacAddrGet
                0x0002147c                mvNetaMcastAddrSet
                0x00021bc8                mvNetaSetUcastTable
                0x00021c24                mvNetaSetSpecialMcastTable
                0x00021c7c                mvNetaSetOtherMcastTable
                0x00021d1c                mvNetaTosToRxqSet
                0x00021df4                mvNetaTosToRxqGet
                0x00021e84                mvNetaVprioToRxqSet
                0x00021f24                mvNetaVprioToRxqGet
                0x00021f84                mvNetaPhyAddrSet
                0x00022004                mvNetaPhyAddrPollingDisable
                0x00022048                mvNetaPhyAddrGet
                0x00022074                mvNetaRxReset
                0x00022144                mvNetaTxpReset
                0x00022230                mvNetaRxqAddrSet
                0x000222cc                mvNetaRxqInit
                0x000223b8                mvNetaTxqAddrSet
                0x00022450                mvNetaTxpRateMaxSet
                0x000224a0                mvNetaDefaultsSet
                0x0002282c                mvNetaTxqBandwidthSet
                0x00022888                mvNetaTxqInit
                0x000229a4                mvNetaRxqDelete
                0x00022a40                mvNetaTxqDelete
                0x00022b00                mvNetaMhSet
                0x00022b94                mvNetaTagSet
                0x00022c28                mvNetaTxMhRegSet
                0x00022c84                mvNetaRxqBufSizeSet
                0x00022ce4                mvNetaRxqTimeCoalSet
                0x00022d40                mvNetaRxqPktsCoalSet
                0x00022d6c                mvNetaTxDonePktsCoalSet
                0x00022dc8                mvNetaRxqTimeCoalGet
                0x00022e1c                mvNetaRxqPktsCoalGet
                0x00022e4c                mvNetaTxDonePktsCoalGet
                0x00022e78                mvNetaPortDown
                0x000230bc                mvNetaPortDisable
                0x00023114                mvNetaPortInit
                0x00023250                mvNetaRxqOffsetSet
                0x000232a4                mvNetaBmPoolBufSizeSet
                0x000232dc                mvNetaRxqBmEnable
                0x00023338                mvNetaRxqBmDisable
                0x00023384                mvNetaTxpEjpBurstRateSet
                0x000233e0                mvNetaTxpEjpMaxPktSizeSet
                0x0002340c                mvNetaTxpEjpTxSpeedSet
                0x00023438                mvNetaRateCalc
                0x0002350c                mvNetaTxpEjpSet
                0x00023560                mvNetaTxqFixPrioSet
                0x000235ec                mvNetaTxqWrrPrioSet
                0x00023738                mvNetaTxpMaxTxSizeSet
                0x00023850                mvNetaTxpRateSet
                0x00023954                mvNetaTxpBurstSet
                0x000239ec                mvNetaTxqRateSet
                0x00023b00                mvNetaTxqBurstSet
                0x00023bc4                mvNetaTcpRxq
                0x00023c30                mvNetaUdpRxq
                0x00023c9c                mvNetaArpRxq
                0x00023d08                mvNetaBpduRxq
                0x00023db4                mvNetaMibCounterRead
                0x00023e14                mvNetaMibCountersClear
                0x00023e48                mvNetaPortUp
                0x00023f00                mvNetaPortEnable
                0x00023f6c                mvNetaWinRead
                0x00024050                mvNetaWinEnable
                0x000240dc                mvNetaWinWrite
                0x0002434c                mvNetaWinInit
                0x00024450                mvNetaProtWinSet
                0x000245cc                mvEthTxpWrrRegs
                0x000248a4                mvEthPortRegs
                0x00024aa0                mvEthRegs
                0x00024c4c                mvNetaGmacRegs
                0x00024e3c                mvNetaRxqRegs
                0x00024fcc                mvNetaTxqRegs
                0x000250f0                mvNetaTxpRegs
                0x0002515c                mvNetaPortRegs
                0x00025350                mvNetaPortStatus
                0x000254b4                mvNetaRxqShow
                0x00025674                mvNetaTxqShow
                0x0002581c                mvEthPortCounters
                0x00025b58                mvEthPortRmonCounters
                0x00025c38                mvEthPortUcastShow
                0x00025d48                mvEthPortMcastShow
                0x00025e94                mvNetaCpuDump
                0x0002657c                mv_eth_initialize
                0x00026788                lowlevel_init
                0x00026798                _lowlevel_init_val
                0x0002679c                _dcache_index_max
                0x000267a0                _dcache_index_inc
                0x000267a4                _dcache_set_max
                0x000267a8                _dcache_set_index
                0x000267ac                cpu_dcache_flush_all
                0x000267e8                cpu_icache_flush_invalidate_all
 .text          0x000267fc    0x1caa0 common/libcommon.o
                0x00026814                do_bdinfo
                0x00026964                do_go_exec
                0x00026b04                do_bootd
                0x000274d0                do_bootm
                0x00027994                arch_preboot_os
                0x00027998                bootm_maybe_autostart
                0x00027b34                mk_date
                0x00027e3c                common_diskboot
                0x00028160                eeprom_read
                0x000281d8                eeprom_write
                0x00028250                do_eeprom
                0x00028364                eeprom_probe
                0x00028370                eeprom_init
                0x00028408                mv_swab32
                0x00028420                mv_swab16
                0x00028440                do_bootelf_exec
                0x00028488                valid_elf_image
                0x000284f8                do_bootvx
                0x000287d4                do_bootelf
                0x00028960                do_ext2load
                0x0002897c                do_ext2ls
                0x00028994                do_ext4_ls
                0x000289ac                do_ext4_load
                0x000289c8                do_ext4_write
                0x00028ad4                do_fat_fsload
                0x00028e80                set_working_fdt_addr
                0x0002a0dc                flash_sect_roundb
                0x0002a270                flash_sect_erase
                0x0002a5b4                flash_sect_protect
                0x0002b500                i2c_init_board
                0x0002b908                do_jffs2_ls
                0x0002b96c                do_jffs2_fsload
                0x0002baac                do_jffs2_fsinfo
                0x0002d504                do_mmcops
                0x0002e518                device_find
                0x0002eaa0                mtd_id_parse
                0x0002ebb4                find_dev_and_part
                0x0002ed70                mtdparts_init
                0x0002fc94                do_dhcp
                0x0002fcb0                do_tftpb
                0x000304f8                get_env_id
                0x00030508                setenv
                0x000307bc                setenv_ulong
                0x000307dc                setenv_addr
                0x00030814                envmatch
                0x00030884                getenv_f
                0x00030940                getenv
                0x00030a24                getenv_ulong
                0x00030bb8                pci_header_show_brief
                0x00030c3c                pci_header_show
                0x00031530                pciinfo
                0x00031ef0                do_pxe
                0x000329c4                do_sysboot
                0x00032b64                do_pxe_boot
                0x00032c20                pxe_env_files
                0x00032cd8                do_pxe_get
                0x000330e4                do_scsiboot
                0x000330f0                scsi_get_disk_count
                0x00033100                scsi_get_dev
                0x0003311c                scsi_ident_cpy
                0x0003317c                scsi_trim_trail
                0x000331b0                scsi_setup_test_unit_ready
                0x000331e8                scsi_setup_read_ext
                0x00033348                scsi_setup_read6
                0x0003338c                scsi_setup_inquiry
                0x000333d4                scsi_scan
                0x00033958                scsi_init
                0x000339dc                do_scsi
                0x00034564                source
                0x00034644                do_source
                0x00034688                do_spi
                0x00035b34                do_ubifs_load
                0x00035bfc                do_ubifs_mount
                0x00035c54                do_ubifs_ls
                0x00035cbc                ubifs_is_mounted
                0x00035ccc                cmd_ubifs_umount
                0x00035d24                do_ubifs_umount
                0x0003654c                do_usb
                0x00036e34                find_cmd_tbl
                0x00036ed4                find_cmd
                0x00036efc                cmd_usage
                0x00036f5c                _do_help
                0x000370e4                var_complete
                0x00037170                cmd_auto_complete
                0x000375d4                cmd_get_data_size
                0x00037628                cmd_process
                0x00037788                serial_printf
                0x000377cc                fgetc
                0x000377f8                ftstc
                0x00037824                fputc
                0x00037850                fputs
                0x0003787c                fprintf
                0x000378c4                getc
                0x000378ec                tstc
                0x00037914                putc
                0x00037940                puts
                0x0003796c                printf
                0x000379bc                vprintf
                0x00037a00                ctrlc
                0x00037a50                disable_ctrlc
                0x00037a68                had_ctrlc
                0x00037a78                clear_ctrlc
                0x00037a8c                dbg
                0x00037a98                search_device
                0x00037ac4                console_assign
                0x00037bcc                console_init_f
                0x00037bdc                stdio_print_current_devices
                0x00037c90                console_init_r
                0x00037d70                sbrk
                0x00037dd0                mem_malloc_init
                0x00037df4                malloc_trim
                0x00037ec0                free
                0x000380e4                cfree
                0x000380e8                malloc
                0x000386b4                calloc
                0x0003878c                memalign
                0x000388a0                pvalloc
                0x000388b8                valloc
                0x000388c4                realloc
                0x00038cd0                malloc_usable_size
                0x00038d10                mallopt
                0x00038dd8                env_attr_walk
                0x00038ee8                env_attr_lookup
                0x00039088                find_env_callback
                0x00039188                env_callback_init
                0x00039228                env_get_char_spec
                0x00039234                env_get_addr
                0x00039258                env_get_char_memory
                0x0003926c                env_get_char
                0x000392a0                getenv_yesno
                0x000392f0                getenv_default
                0x00039324                set_default_env
                0x000393e0                set_default_vars
                0x00039418                env_import
                0x000394f4                env_relocate
                0x00039524                env_complete
                0x000396dc                env_flags_parse_vartype
                0x0003972c                env_flags_parse_varaccess
                0x00039834                env_flags_parse_varaccess_from_binflags
                0x00039884                env_flags_init
                0x00039930                env_flags_validate
                0x00039c44                saveenv
                0x00039da8                env_relocate_spec
                0x00039e64                env_init
                0x00039e84                get_version
                0x00039e8c                jumptable_init
                0x0003a288                fdt_getprop_u32_default
                0x0003a2cc                fdt_find_and_setprop
                0x0003a340                fdt_initrd
                0x0003a508                fdt_chosen
                0x0003a610                do_fixup_by_path
                0x0003a668                do_fixup_by_path_u32
                0x0003a698                do_fixup_by_prop
                0x0003a72c                do_fixup_by_prop_u32
                0x0003a76c                do_fixup_by_compat
                0x0003a7f0                do_fixup_by_compat_u32
                0x0003a820                fdt_fixup_memory_banks
                0x0003aa6c                fdt_fixup_memory
                0x0003aa90                fdt_fixup_ethernet
                0x0003ac48                fdt_resize
                0x0003ad1c                fdt_pci_dma_ranges
                0x0003ae3c                fdt_increase_size
                0x0003ae50                fdt_del_node_and_alias
                0x0003ae9c                __of_translate_address
                0x0003b130                fdt_translate_address
                0x0003b13c                fdt_node_offset_by_compat_reg
                0x0003b1c8                fdt_alloc_phandle
                0x0003b224                fdt_set_phandle
                0x0003b288                fdt_create_phandle
                0x0003b2f0                fdt_set_node_status
                0x0003b400                fdt_set_status_by_alias
                0x0003b42c                fdt_verify_alias_address
                0x0003b500                fdt_get_base_address
                0x0003b578                flash_protect
                0x0003b684                addr2info
                0x0003b6d4                flash_write
                0x0003b838                flash_perror
                0x0003b930                hash_command
                0x0003c268                get_local_var
                0x0003c2f4                set_local_var
                0x0003c778                unset_local_var
                0x0003c820                parse_string_outer
                0x0003d7e4                parse_file_outer
                0x0003d82c                u_boot_hush_start
                0x0003d8ec                image_check_hcrc
                0x0003d93c                image_check_dcrc
                0x0003d978                image_multi_count
                0x0003d99c                image_multi_getimg
                0x0003da1c                getenv_bootm_low
                0x0003da4c                getenv_bootm_size
                0x0003daac                getenv_bootm_mapsize
                0x0003dadc                memmove_wd
                0x0003daec                genimg_print_size
                0x0003db1c                get_table_entry_name
                0x0003db48                genimg_get_os_name
                0x0003db60                genimg_get_arch_name
                0x0003db78                genimg_get_type_name
                0x0003db90                genimg_get_comp_name
                0x0003dba8                image_print_contents
                0x0003dd6c                get_table_entry_id
                0x0003ddb8                genimg_get_os_id
                0x0003ddd0                genimg_get_arch_id
                0x0003dde8                genimg_get_type_id
                0x0003de00                genimg_get_comp_id
                0x0003de18                genimg_get_format
                0x0003de50                genimg_get_image
                0x0003de54                genimg_has_config
                0x0003de5c                boot_get_ramdisk
                0x0003e098                boot_ramdisk_high
                0x0003e1b8                boot_fdt_add_mem_rsv_regions
                0x0003e244                boot_relocate_fdt
                0x0003e3e4                boot_get_fdt
                0x0003e804                __show_boot_progress
                0x0003e804                show_boot_progress
                0x0003e808                abortboot
                0x0003e8c8                readline_into_buffer
                0x0003f268                readline
                0x0003f284                parse_line
                0x0003f308                run_command
                0x0003f310                run_command_list
                0x0003f370                main_loop
                0x0003f3ec                do_run
                0x0003f464                get_ram_size
                0x0003f570                menu_display_statusline
                0x0003f570                __menu_display_statusline
                0x0003f574                menu_default_set
                0x0003f5f8                menu_get_choice
                0x0003f760                menu_item_add
                0x0003f840                menu_create
                0x0003f8c4                menu_destroy
                0x0003f9b0                srec_decode
                0x0003fc14                stdio_get_list
                0x0003fc20                stdio_get_by_name
                0x0003fc78                stdio_clone
                0x0003fcb4                stdio_register
                0x0003fcf4                stdio_init
                0x0003fdec                usb_stop
                0x0003fe60                usb_disable_asynch
                0x0003fe80                usb_submit_int_msg
                0x0003fe84                usb_control_msg
                0x00040110                usb_bulk_msg
                0x00040184                usb_maxpacket
                0x000401a0                usb_clear_halt
                0x00040244                usb_get_configuration_no
                0x000402e0                usb_set_interface
                0x00040398                usb_set_protocol
                0x000403e8                usb_set_idle
                0x0004043c                usb_get_report
                0x00040498                usb_get_class_descriptor
                0x000404f4                usb_string
                0x000405f8                usb_get_dev_index
                0x00040624                usb_alloc_new_device
                0x000406b0                usb_free_device
                0x00040708                usb_new_device
                0x00040c84                usb_init
                0x00040f78                usb_hub_reset
                0x00040f8c                hub_port_reset
                0x0004103c                usb_hub_port_connect_change
                0x00041438                usb_hub_probe
                0x00041e6c                usb_stor_write
                0x00042050                usb_stor_read
                0x00042234                usb_stor_get_dev
                0x00042258                usb_stor_info
                0x000422c8                usb_storage_probe
                0x000424e4                usb_stor_get_info
                0x00042830                usb_stor_scan
                0x00042ce8                xyzModem_stream_open
                0x00042f38                xyzModem_stream_read
                0x0004318c                xyzModem_stream_close
                0x000431e0                xyzModem_stream_terminate
                0x0004327c                xyzModem_error
 .text          0x0004329c     0x22e0 disk/libdisk.o
                0x00043360                get_dev
                0x000433d0                dev_print
                0x00043648                init_part
                0x00043694                print_part
                0x0004371c                get_partition_info
                0x00043764                get_device
                0x000437e8                get_device_and_partition
                0x00044070                test_part_dos
                0x000440e4                print_part_dos
                0x00044118                get_partition_info_dos
                0x00044138                get_partition_info_iso_verb
                0x000445a0                get_partition_info_iso
                0x000445a8                print_part_iso
                0x00044644                test_part_iso
                0x00044a48                print_part_efi
                0x00044bd4                get_partition_info_efi
                0x00044d5c                test_part_efi
                0x00044e34                write_gpt_table
                0x0004505c                gpt_fill_pte
                0x000451c4                gpt_fill_header
                0x0004547c                gpt_restore
 .text          0x0004557c     0x13f8 drivers/block/libblock.o
                0x00045c14                ahci_link_up
                0x00045f18                scsi_exec
                0x00046120                scsi_low_level_init
                0x00046574                ahci_init
                0x000466e8                scsi_bus_reset
                0x000466ec                scsi_print_error
                0x000466f0                ata_id_n_sectors
                0x0004677c                ata_dev_classify
                0x000467c8                ata_id_c_string
                0x00046844                ata_dump_id
                0x00046970                ata_swap_buf_le16
 .text          0x00046974      0x5c8 drivers/input/libinput.o
                0x00046a64                input_tstc
                0x00046aac                input_getc
                0x00046b10                input_send_keycodes
                0x00046e04                input_add_table
                0x00046e40                input_set_delays
                0x00046e4c                input_init
                0x00046ee8                input_stdio_register
 .text          0x00046f3c     0x2c94 drivers/mmc/libmmc.o
                0x00046fe4                board_mmc_getwp
                0x00046fec                mmc_getwp
                0x00047020                __board_mmc_getcd
                0x00047020                board_mmc_getcd
                0x00047028                mmc_send_cmd
                0x0004729c                mmc_send_status
                0x000473bc                mmc_set_blocklen
                0x000473f0                find_mmc_device
                0x00047604                mmc_send_op_cond
                0x0004767c                mmc_complete_op_cond
                0x00047708                mmc_switch_part
                0x00047758                mmc_getcd
                0x0004778c                mmc_set_clock
                0x000482c8                mmc_register
                0x0004835c                mmc_start_init
                0x0004856c                mmc_init
                0x000485f8                mmc_get_dev
                0x00048624                mmc_set_dsr
                0x00048630                cpu_mmc_init
                0x00048638                print_mmc_devices
                0x0004869c                get_mmc_num
                0x000486ac                mmc_set_preinit
                0x000486b4                mmc_initialize
                0x00048730                mv_sdh_init
                0x00048824                sdhci_set_ios
                0x00048ab4                sdhci_init
                0x00048dd0                sdhci_send_command
                0x00049604                add_sdhci
                0x000497e0                mmc_berase
                0x000499ec                mmc_bwrite
 .text          0x00049bd0     0x32b0 drivers/mtd/libmtd.o
                0x00049bd0                add_mtd_device
                0x00049c40                del_mtd_device
                0x00049c90                get_mtd_device
                0x00049d0c                get_mtd_device_nm
                0x00049d7c                put_mtd_device
                0x0004a3b4                mtd_erase_callback
                0x0004a428                del_mtd_partitions
                0x0004a4b4                add_mtd_partitions
                0x0004ae44                cfi_flash_bank_addr
                0x0004ae4c                cfi_flash_bank_size
                0x0004ae54                flash_sector_size
                0x0004ae94                flash_write_cmd
                0x0004b478                flash_erase
                0x0004b63c                flash_print_info
                0x0004b8dc                write_buff
                0x0004bfe0                flash_real_protect
                0x0004c35c                flash_read_user_serial
                0x0004c3c8                flash_read_factory_serial
                0x0004c430                flash_cmd_reset
                0x0004c468                flash_get_size
                0x0004cd74                flash_protect_default
                0x0004cd78                flash_init
 .text          0x0004ce80      0xa58 drivers/mtd/spi/libspi_flash.o
                0x0004cef8                spi_flash_cmd_read
                0x0004cf18                spi_flash_cmd
                0x0004cf48                spi_flash_cmd_write
                0x0004cf68                spi_flash_read_common
                0x0004cfb8                spi_flash_cmd_read_fast
                0x0004d024                spi_flash_cmd_poll_bit
                0x0004d0ec                spi_flash_cmd_wait_ready
                0x0004d0f8                spi_flash_cmd_write_multi
                0x0004d2a4                spi_flash_cmd_erase
                0x0004d428                spi_flash_cmd_write_status
                0x0004d494                spi_flash_probe
                0x0004d5b0                spi_flash_free
                0x0004d5cc                spi_flash_probe_macronix
                0x0004d690                spi_flash_probe_stmicro
                0x0004d824                spi_flash_probe_winbond
 .text          0x0004d8d8     0x7b50 drivers/mtd/ubi/libubi.o
                0x0004d8d8                ubi_get_device
                0x0004d8f8                ubi_put_device
                0x0004d908                ubi_get_by_major
                0x0004d954                ubi_major2num
                0x0004d998                ubi_attach_mtd_dev
                0x0004e110                ubi_detach_mtd_dev
                0x0004e208                ubi_init
                0x0004e36c                ubi_exit
                0x0004e3b4                ubi_mtd_param_parse
                0x0004eaa4                ubi_change_vtbl_record
                0x0004eb5c                ubi_read_volume_table
                0x0004f318                ubi_create_volume
                0x0004f74c                ubi_remove_volume
                0x0004f880                ubi_resize_volume
                0x0004fafc                ubi_add_volume
                0x0004fb5c                ubi_free_volume
                0x0004fd30                ubi_start_update
                0x0004feb4                ubi_start_leb_change
                0x0004ff3c                ubi_more_update_data
                0x000501a0                ubi_more_leb_change_data
                0x000502c4                ubi_get_device_info
                0x00050320                ubi_get_volume_info
                0x00050394                ubi_close_volume
                0x000503f8                ubi_open_volume
                0x00050594                ubi_open_volume_nm
                0x00050670                ubi_leb_read
                0x000507a4                ubi_leb_write
                0x000508a0                ubi_leb_change
                0x00050984                ubi_leb_erase
                0x00050a0c                ubi_leb_unmap
                0x00050a78                ubi_leb_map
                0x00050b20                ubi_is_mapped
                0x00050d08                ubi_eba_unmap_leb
                0x00050d8c                ubi_eba_read_leb
                0x00051000                ubi_eba_write_leb
                0x00051614                ubi_eba_write_leb_st
                0x00051944                ubi_eba_atomic_leb_change
                0x00051c8c                ubi_eba_copy_leb
                0x00051f8c                ubi_eba_init_scan
                0x000521d0                ubi_eba_close
                0x000522f0                ubi_io_read
                0x000523f4                ubi_io_write
                0x00052498                ubi_io_sync_erase
                0x00052670                ubi_io_is_bad
                0x000526cc                ubi_io_mark_bad
                0x0005274c                ubi_io_read_ec_hdr
                0x00052974                ubi_io_write_ec_hdr
                0x00052a00                ubi_io_read_vid_hdr
                0x00052ca4                ubi_io_write_vid_hdr
                0x00053820                ubi_wl_get_peb
                0x000539a0                ubi_wl_put_peb
                0x00053ab0                ubi_wl_scrub_peb
                0x00053bac                ubi_wl_flush
                0x00053bfc                ubi_thread
                0x00053cc8                ubi_wl_init_scan
                0x00053f98                ubi_wl_close
                0x0005415c                ubi_scan_add_used
                0x000547cc                ubi_scan_find_sv
                0x000547fc                ubi_scan_find_seb
                0x0005482c                ubi_scan_rm_volume
                0x00054898                ubi_scan_erase_peb
                0x00054968                ubi_scan_get_free_peb
                0x00054a68                ubi_scan_destroy_si
                0x00054c64                ubi_scan
                0x00055230                crc32_le
                0x00055318                ubi_calc_data_len
                0x00055348                ubi_check_volume
                0x000553fc                ubi_calculate_reserved
 .text          0x00055428     0x447c drivers/net/libnet.o
                0x00056314                e1000_raise_ee_clk
                0x00056334                e1000_lower_ee_clk
                0x00056468                e1000_standby_eeprom
                0x00056518                e1000_acquire_eeprom
                0x000565fc                e1000_release_eeprom
                0x00056b48                e1000_set_mac_type
                0x00056e50                e1000_reset_hw
                0x00056f6c                e1000_check_mng_mode
                0x00056fa8                fill_rx
                0x00058b3c                e1000_get_bus_type
                0x00058b98                e1000_initialize
                0x00058fec                e1000_find_card
                0x000596cc                eepro100_initialize
 .text          0x000598a4     0x16d0 drivers/pci/libpci.o
                0x000598a4                pci_hose_read_config_byte
                0x000598b8                pci_hose_read_config_word
                0x000598cc                pci_hose_read_config_dword
                0x000598e0                pci_hose_write_config_byte
                0x000598f4                pci_hose_write_config_word
                0x00059908                pci_hose_write_config_dword
                0x0005991c                pci_hose_read_config_byte_via_dword
                0x00059964                pci_hose_read_config_word_via_dword
                0x000599ac                pci_hose_write_config_byte_via_dword
                0x00059a24                pci_hose_write_config_word_via_dword
                0x00059a9c                pci_register_hose
                0x00059ac8                pci_bus_to_hose
                0x00059b18                pci_write_config_dword
                0x00059b58                pci_write_config_word
                0x00059b98                pci_write_config_byte
                0x00059bd8                pci_read_config_dword
                0x00059c1c                pci_read_config_word
                0x00059c60                pci_read_config_byte
                0x00059ca4                find_hose_by_cfg_addr
                0x00059cd0                pci_last_busno
                0x00059d08                pci_find_devices
                0x00059e04                pci_find_device
                0x00059e1c                __pci_hose_phys_to_bus
                0x00059ea0                pci_hose_phys_to_bus
                0x00059f18                __pci_hose_bus_to_phys
                0x00059fa0                pci_hose_bus_to_phys
                0x0005a018                pci_map_bar
                0x0005a050                pci_hose_config_device
                0x0005a25c                pci_find_config
                0x0005a30c                pci_cfgfunc_config_device
                0x0005a330                pci_cfgfunc_do_nothing
                0x0005a334                pci_class_str
                0x0005a4ac                __pci_skip_dev
                0x0005a4c0                pci_hose_scan_bus
                0x0005a648                pci_hose_scan
                0x0005a674                pci_init
                0x0005a688                pciauto_region_init
                0x0005a69c                pciauto_region_align
                0x0005a6b8                pciauto_region_allocate
                0x0005a710                pciauto_setup_device
                0x0005a8e4                pciauto_prescan_setup_bridge
                0x0005aa58                pciauto_postscan_setup_bridge
                0x0005ab38                pciauto_config_init
                0x0005ac44                pciauto_config_device
                0x0005af20                pci_setup_indirect
 .text          0x0005af74        0x0 drivers/pcmcia/libpcmcia.o
 .text          0x0005af74      0x280 drivers/rtc/librtc.o
                0x0005af74                GregorianDay
                0x0005b05c                to_tm
                0x0005b160                mktime
 .text          0x0005b1f4      0x414 drivers/serial/libserial.o
                0x0005b238                jz_serial_initialize
                0x0005b238                bfin_serial_initialize
                0x0005b238                p3mx_serial_initialize
                0x0005b238                leon2_serial_initialize
                0x0005b238                leon3_serial_initialize
                0x0005b238                amirix_serial_initialize
                0x0005b238                marvell_serial_initialize
                0x0005b238                cpci750_serial_initialize
                0x0005b238                ns16550_serial_initialize
                0x0005b238                asc_serial_initialize
                0x0005b238                altera_serial_initialize
                0x0005b238                oc_serial_initialize
                0x0005b238                sh_serial_initialize
                0x0005b238                bmw_serial_initialize
                0x0005b238                mcf_serial_initialize
                0x0005b238                lh7a40x_serial_initialize
                0x0005b238                evb64260_serial_initialize
                0x0005b238                lpc32xx_serial_initialize
                0x0005b238                max3100_serial_initialize
                0x0005b238                mpc85xx_serial_initialize
                0x0005b238                imx_serial_initialize
                0x0005b238                ixp_serial_initialize
                0x0005b238                bfin_jtag_initialize
                0x0005b238                cogent_serial_initialize
                0x0005b238                clps7111_serial_initialize
                0x0005b238                mpc8220_serial_initialize
                0x0005b238                s3c64xx_serial_initialize
                0x0005b238                ml2_serial_initialize
                0x0005b238                sandbox_serial_initialize
                0x0005b238                s3c24xx_serial_initialize
                0x0005b238                sconsole_serial_initialize
                0x0005b238                uartlite_serial_initialize
                0x0005b238                au1x00_serial_initialize
                0x0005b238                ns9750_serial_initialize
                0x0005b238                pxa_serial_initialize
                0x0005b238                atmel_serial_initialize
                0x0005b238                pl01x_serial_initialize
                0x0005b238                altera_jtag_serial_initialize
                0x0005b238                zynq_serial_initalize
                0x0005b238                mpc512x_serial_initialize
                0x0005b238                s5p_serial_initialize
                0x0005b238                ks8695_serial_initialize
                0x0005b238                sa1100_serial_initialize
                0x0005b238                mpc8260_scc_serial_initialize
                0x0005b238                mxc_serial_initialize
                0x0005b238                iop480_serial_initialize
                0x0005b238                s3c44b0_serial_initialize
                0x0005b238                mpc8xx_serial_initialize
                0x0005b238                mpc8260_smc_serial_initialize
                0x0005b238                mpc5xx_serial_initialize
                0x0005b23c                serial_register
                0x0005b254                serial_stdio_init
                0x0005b2e4                serial_assign
                0x0005b330                serial_initialize
                0x0005b408                serial_reinit_all
                0x0005b438                serial_init
                0x0005b450                serial_setbrg
                0x0005b568                serial_getc
                0x0005b580                serial_tstc
                0x0005b598                serial_putc
                0x0005b5b8                serial_puts
                0x0005b5d8                default_serial_puts
 .text          0x0005b608      0xc58 drivers/usb/eth/libusb_eth.o
                0x0005b608                is_eth_dev_on_usb_host
                0x0005b664                usb_host_eth_scan
                0x0005bd54                asix_eth_before_probe
                0x0005bd68                asix_eth_probe
                0x0005bf08                asix_eth_get_info
 .text          0x0005c260     0x3370 drivers/usb/host/libusb_host.o
                0x0005c910                ehci_powerup_fixup
                0x0005c910                __ehci_powerup_fixup
                0x0005c918                ehci_submit_root
                0x0005cd88                ehci_usb_lowlevel_stop
                0x0005cd8c                ehci_usb_lowlevel_init
                0x0005cf18                ehci_submit_bulk_msg
                0x0005cf40                ehci_submit_control_msg
                0x0005cfa8                ehci_submit_int_msg
                0x0005d154                xhci_reset
                0x0005d1f4                xhci_usb_alloc_device
                0x0005d2b8                xhci_check_maxpacket
                0x0005d378                xhci_submit_int_msg
                0x0005d380                xhci_submit_bulk_msg
                0x0005d3c0                xhci_submit_control_msg
                0x0005db80                xhci_usb_lowlevel_init
                0x0005dcf0                xhci_usb_lowlevel_stop
                0x0005dddc                xhci_flush_cache
                0x0005dfc8                xhci_inval_cache
                0x0005e02c                xhci_cleanup
                0x0005e10c                xhci_ring_alloc
                0x0005e260                xhci_alloc_virt_device
                0x0005e344                xhci_mem_init
                0x0005e510                xhci_get_input_control_ctx
                0x0005e558                xhci_get_slot_ctx
                0x0005e58c                xhci_get_ep_ctx
                0x0005e5bc                xhci_endpoint_copy
                0x0005e614                xhci_slot_copy
                0x0005e65c                xhci_setup_addressable_virt_dev
                0x0005eb50                xhci_queue_command
                0x0005ebf4                xhci_acknowledge_event
                0x0005ec7c                xhci_wait_for_event
                0x0005eef4                xhci_bulk_tx
                0x0005f284                xhci_ctrl_tx
 .text          0x0005f5d0     0x5e04 fs/ext4/libext4fs.o
                0x0005f6cc                get_fs
                0x0005f6d8                ext4fs_free_node
                0x0005f6fc                ext4fs_read_file
                0x0005f938                ext4fs_ls
                0x0005f9c4                ext4fs_read
                0x0005fa00                ext4fs_get_bgdtable
                0x0005fadc                ext4fs_deinit
                0x0005fc94                ext4fs_init
                0x0005ff6c                ext4fs_write
                0x00061224                ext4fs_div_roundup
                0x00061248                put_ext4
                0x000613dc                ext4fs_set_block_bmap
                0x0006148c                ext4fs_reset_block_bmap
                0x00061530                ext4fs_set_inode_bmap
                0x000615a4                ext4fs_reset_inode_bmap
                0x00061614                ext4fs_checksum_update
                0x00061674                ext4fs_get_new_blk_no
                0x00061a3c                ext4fs_get_new_inode_no
                0x00061dc0                ext4fs_allocate_blocks
                0x000623f0                ext4fs_read_inode
                0x000624f8                ext4fs_iget
                0x0006252c                read_allocated_block
                0x00062e34                ext4fs_filename_check
                0x000630b8                ext4fs_get_parent_inode_num
                0x000634c8                ext4fs_update_parent_dentry
                0x00063880                ext4fs_close
                0x00063960                ext4fs_iterate_dir
                0x00063f44                ext4fs_find_file
                0x00063fb8                ext4fs_open
                0x00064050                ext4fs_mount
                0x00064128                ext4fs_set_blk_dev
                0x00064174                ext4fs_devread
                0x000643bc                ext4fs_dump_metadata
                0x00064410                ext4fs_free_journal
                0x000644ec                ext4fs_log_gdt
                0x000645bc                ext4fs_log_journal
                0x000646a8                ext4fs_put_metadata
                0x00064758                print_revoke_blks
                0x000647ac                ext4fs_push_revoke_blk
                0x00064884                ext4fs_free_revoke_blks
                0x000648f4                check_blknr_for_revoke
                0x00064968                recover_transaction
                0x00064ad4                print_jrnl_status
                0x00064aec                ext4fs_check_journal_state
                0x00064e3c                ext4fs_init_journal
                0x00065070                ext4fs_update_journal
                0x00065390                ext2fs_crc16
 .text          0x000653d4     0x1a3c fs/fat/libfat.o
                0x00065c10                fat_set_blk_dev
                0x00065ce0                fat_register_device
                0x00065d6c                do_fat_read_at
                0x000668bc                do_fat_read
                0x000668e4                file_fat_detectfs
                0x00066a34                file_fat_ls
                0x00066a44                file_fat_read_at
                0x00066a8c                file_fat_read
                0x00066aa0                file_getfsname
                0x00066ab8                file_cd
                0x00066cb0                file_detectfs
                0x00066cf0                file_ls
                0x00066d78                file_read
 .text          0x00066e10     0x237c fs/jffs2/libjffs2.o
                0x00066e10                rtime_decompress
                0x00066edc                rubin_do_decompress
                0x00066fbc                dynrubin_decompress
                0x00066ff8                zlib_decompress
                0x00067380                jffs2_free_cache
                0x000673e4                mkmodestr
                0x00067b24                jffs2_1pass_rescan_needed
                0x0006824c                jffs2_1pass_ls
                0x0006829c                jffs2_1pass_load
                0x00068720                jffs2_1pass_info
                0x0006892c                cramfs_memset
                0x0006898c                pull_bits
                0x000689e8                pull_bit
                0x00068bd8                decompress_block
 .text          0x0006918c      0x4c4 fs/libfs.o
                0x0006920c                fs_set_blk_dev
                0x000692b8                fs_ls
                0x00069318                fs_read
                0x000693fc                do_load
                0x000695e0                do_ls
 .text          0x00069650     0xb1a4 fs/ubifs/libubifs.o
                0x000699d0                ubifs_decompress
                0x00069ba4                ubifs_compressors_init
                0x00069bd8                ubifs_ls
                0x0006a068                ubifs_load
                0x0006a378                ubifs_ro_mode
                0x0006a3b4                ubifs_check_node
                0x0006a544                ubifs_pad
                0x0006a610                ubifs_prepare_node
                0x0006a738                ubifs_read_node
                0x0006a92c                sget
                0x0006a9c4                iget_locked
                0x0006aa14                ubifs_iput
                0x0006aa44                iput
                0x0006aabc                ubifs_iget
                0x0006aeec                ubifs_umount
                0x0006bbf8                ubifs_init
                0x0006bbfc                ubifs_mount
                0x0006bd5c                ubifs_read_sb_node
                0x0006bdc8                ubifs_read_superblock
                0x0006c30c                ubifs_read_master
                0x0006cc5c                ubifs_calc_lpt_geom
                0x0006cfec                ubifs_unpack_bits
                0x0006d1f4                ubifs_add_lpt_dirt
                0x0006d234                ubifs_add_nnode_dirt
                0x0006d390                ubifs_unpack_nnode
                0x0006d44c                ubifs_read_nnode
                0x0006d6c4                ubifs_get_nnode
                0x0006d6f8                ubifs_get_pnode
                0x0006dac0                ubifs_lpt_lookup
                0x0006db5c                ubifs_lpt_lookup_dirty
                0x0006dd48                ubifs_lpt_init
                0x0006df1c                ubifs_lpt_free
                0x0006e0fc                ubifs_scan_a_node
                0x0006e21c                ubifs_start_scan
                0x0006e2f0                ubifs_end_scan
                0x0006e30c                ubifs_add_snod
                0x0006e3a0                ubifs_scanned_corruption
                0x0006e3cc                ubifs_scan_destroy
                0x0006e410                ubifs_scan
                0x0006e8b0                ubifs_add_to_cat
                0x0006ea50                ubifs_replace_cat
                0x0006eab4                ubifs_categorize_lprops
                0x0006eb48                ubifs_ensure_cat
                0x0006eb98                ubifs_change_lp
                0x0006eea0                ubifs_get_lp_stats
                0x0006eeb4                ubifs_change_one_lp
                0x0006ef18                ubifs_update_one_lp
                0x0006ef80                ubifs_read_one_lp
                0x0006efb4                ubifs_fast_find_free
                0x0006efcc                ubifs_fast_find_empty
                0x0006efe8                ubifs_fast_find_freeable
                0x0006effc                ubifs_fast_find_frdi_idx
                0x000704c0                insert_old_idx_znode
                0x00070744                destroy_old_idx
                0x000707a8                ubifs_lookup_level0
                0x0007090c                ubifs_tnc_locate
                0x00070a08                ubifs_tnc_get_bu_keys
                0x00070c44                ubifs_tnc_bulk_read
                0x00070e64                ubifs_tnc_lookup_nm
                0x00070f34                ubifs_tnc_add
                0x00070ff8                ubifs_tnc_replace
                0x00071264                ubifs_tnc_remove
                0x000712a4                ubifs_tnc_remove_nm
                0x00071368                ubifs_tnc_add_nm
                0x00071508                ubifs_tnc_remove_range
                0x000716ec                ubifs_tnc_next_ent
                0x000717f8                ubifs_tnc_remove_ino
                0x00071928                ubifs_tnc_levelorder_next
                0x00071a98                ubifs_search_zbranch
                0x00071b1c                ubifs_tnc_postorder_first
                0x00071b68                ubifs_tnc_postorder_next
                0x00071bb8                ubifs_load_znode
                0x00071e6c                ubifs_tnc_read_node
                0x00071ef4                crc16
                0x00071f34                ubifs_calc_min_idx_lebs
                0x00071fd0                ubifs_reported_space
                0x00072048                ubifs_search_bud
                0x0007207c                ubifs_add_bud
                0x0007212c                ubifs_clear_orphans
                0x000721b8                ubifs_mount_orphans
                0x00072a2c                ubifs_recover_master_node
                0x00072bf0                ubifs_write_rcvrd_mst_node
                0x00072ca8                ubifs_recover_leb
                0x0007312c                ubifs_recover_log_leb
                0x0007331c                ubifs_recover_inl_heads
                0x00073360                ubifs_clean_lebs
                0x00073580                ubifs_recover_size_accum
                0x00073698                ubifs_recover_size
                0x0007392c                ubifs_validate_entry
                0x00073a14                ubifs_replay_journal
 .text          0x000747f4     0x2014 lib/libfdt/libfdt.o
                0x000747f4                fdt_check_header
                0x0007486c                fdt_offset_ptr
                0x000748c0                fdt_next_tag
                0x000749b8                _fdt_check_node_offset
                0x000749f0                _fdt_check_prop_offset
                0x00074a28                fdt_next_node
                0x00074ae4                _fdt_find_string
                0x00074b40                fdt_move
                0x00074b88                fdt_create_empty_tree
                0x00074c58                fdt_string
                0x00074c6c                fdt_get_mem_rsv
                0x00074cfc                fdt_num_mem_rsv
                0x00074d5c                fdt_subnode_offset_namelen
                0x00074e30                fdt_subnode_offset
                0x00074e60                fdt_get_name
                0x00074ed4                fdt_first_property_offset
                0x00074efc                fdt_next_property_offset
                0x00074f24                fdt_get_property_by_offset
                0x00074f84                fdt_get_property_namelen
                0x00075030                fdt_get_property
                0x0007506c                fdt_getprop_namelen
                0x0007508c                fdt_getprop_by_offset
                0x000750d4                fdt_getprop
                0x00075110                fdt_get_phandle
                0x00075180                fdt_get_alias_namelen
                0x000751c4                fdt_path_offset
                0x000752a4                fdt_get_alias
                0x000752cc                fdt_get_path
                0x00075408                fdt_supernode_atdepth_offset
                0x000754c0                fdt_node_depth
                0x000754e8                fdt_parent_offset
                0x00075520                fdt_node_offset_by_prop_value
                0x000755b8                fdt_node_offset_by_phandle
                0x0007562c                fdt_node_check_compatible
                0x000756bc                fdt_node_offset_by_compatible
                0x00075ae0                fdt_add_mem_rsv
                0x00075ba8                fdt_del_mem_rsv
                0x00075c04                fdt_set_name
                0x00075c90                fdt_setprop
                0x00075d64                fdt_appendprop
                0x00075e48                fdt_delprop
                0x00075eb0                fdt_add_subnode_namelen
                0x00075fa4                fdt_add_subnode
                0x00075fd4                fdt_del_node
                0x00076034                fdt_open_into
                0x000761d0                fdt_pack
                0x00076230                fdt_strerror
                0x00076300                fdt_create
                0x00076364                fdt_add_reservemap_entry
                0x00076424                fdt_finish_reservemap
                0x00076440                fdt_begin_node
                0x000764a8                fdt_end_node
                0x000764e4                fdt_property
                0x000765ec                fdt_finish
                0x000766ec                fdt_setprop_inplace
                0x00076730                fdt_nop_property
                0x00076770                _fdt_node_end_offset
                0x000767b4                fdt_nop_node
 .text          0x00076808     0x3cb0 lib/libgeneric.o
                0x00076808                cyg_crc16
                0x00076850                crc32_no_comp
                0x00076934                crc32
                0x0007694c                crc32_wd
                0x00076950                crc7
                0x00076984                display_options
                0x000769a8                print_size
                0x00076ae0                print_buffer
                0x00076c4c                __div64_32
                0x00076d38                gzfree
                0x00076d40                gzalloc
                0x00076d50                zunzip
                0x00076e5c                gunzip
                0x00076fc8                hcreate_r
                0x00077074                hdestroy_r
                0x000770ec                hstrstr_r
                0x0007719c                hmatch_r
                0x00077240                hsearch_r
                0x000776e4                hdelete_r
                0x000777d0                hexport_r
                0x00077aa0                himport_r
                0x00077dbc                hwalk_r
                0x00077e18                ldiv
                0x00077e6c                skip_spaces
                0x00077e94                strim
                0x000780bc                lmb_dump_all
                0x000780c0                lmb_init
                0x000780e8                lmb_add
                0x000780ec                lmb_free
                0x00078210                lmb_reserve
                0x00078218                lmb_overlaps_region
                0x00078278                __lmb_alloc_base
                0x000783ac                lmb_alloc_base
                0x000783e4                lmb_alloc
                0x000783ec                lmb_is_reserved
                0x00078450                board_lmb_reserve
                0x00078450                __board_lmb_reserve
                0x00078454                __arch_lmb_reserve
                0x00078458                string_to_ip
                0x000784b8                qsort
                0x0007859c                strcmp_compar
                0x0007868c                rb_insert_color
                0x000787bc                rb_erase
                0x00078b18                rb_first
                0x00078b3c                rb_last
                0x00078b60                rb_next
                0x00078bc0                rb_prev
                0x00078c20                rb_replace_node
                0x00078c80                strncasecmp
                0x00078cfc                strcasecmp
                0x00078d04                strcpy
                0x00078d1c                strncpy
                0x00078d40                strcat
                0x00078d6c                strncat
                0x00078dc0                strcmp
                0x00078de8                strncmp
                0x00078e30                strchr
                0x00078e64                strlen
                0x00078e84                strrchr
                0x00078ec4                strnlen
                0x00078ef0                strdup
                0x00078f28                strspn
                0x00078f6c                strpbrk
                0x00078fac                strtok
                0x00079028                strsep
                0x00079060                strswab
                0x000790ac                memset
                0x00079120                bcopy
                0x00079148                memcpy
                0x000791b8                memmove
                0x00079228                memcmp
                0x00079260                memscan
                0x0007928c                strstr
                0x000792f0                memchr
                0x00079320                strmhz
                0x00079390                udelay
                0x000793c4                mdelay
                0x000793ec                uuid_str_valid
                0x00079488                uuid_str_to_bin
                0x0007a10c                simple_strtoul
                0x0007a1bc                strict_strtoul
                0x0007a238                simple_strtol
                0x0007a264                ustrtoul
                0x0007a2d8                simple_strtoull
                0x0007a3dc                vsprintf
                0x0007a3e0                sprintf
                0x0007a404                panic
                0x0007a448                __assert_fail
                0x0007a45c                simple_itoa
 .text          0x0007a4b8      0x794 lib/lzo/liblzo.o
                0x0007a4b8                lzo1x_decompress_safe
                0x0007ab08                lzop_decompress
 .text          0x0007ac4c     0x26ec lib/zlib/libz.o
                0x0007ac4c                zcfree
                0x0007ac54                zcalloc
                0x0007ac5c                inflate_fast
                0x0007b228                inflate_table
                0x0007b7f0                inflateReset
                0x0007b874                inflateInit2_
                0x0007b97c                inflateInit_
                0x0007b990                inflateEnd
                0x0007b9f8                adler32
                0x0007bce0                inflate
 .text          0x0007d338     0x47d4 net/libnet.o
                0x0007d338                ArpInit
                0x0007d364                arp_raw_request
                0x0007d434                ArpRequest
                0x0007d4a8                ArpTimeoutCheck
                0x0007d520                ArpReceive
                0x0007de88                BootpRequest
                0x0007e0b0                DhcpRequest
                0x0007e0b4                cpu_eth_init
                0x0007e190                eth_parse_enetaddr
                0x0007e1e8                eth_getenv_enetaddr
                0x0007e244                eth_setenv_enetaddr
                0x0007e27c                eth_getenv_enetaddr_by_index
                0x0007e2c8                eth_setenv_enetaddr_by_index
                0x0007e314                eth_get_dev_by_name
                0x0007e398                eth_get_dev_by_index
                0x0007e3e0                eth_get_dev_index
                0x0007e3fc                eth_write_hwaddr
                0x0007e5a8                eth_register
                0x0007e618                eth_unregister
                0x0007e6b4                eth_initialize
                0x0007e878                eth_halt
                0x0007e8ac                eth_send
                0x0007e8e4                eth_rx
                0x0007e910                eth_receive
                0x0007e9c8                eth_try_another
                0x0007ea44                eth_init
                0x0007eb0c                eth_set_current
                0x0007eba4                eth_get_name
                0x0007ebdc                net_auto_load
                0x0007ec44                net_get_udp_handler
                0x0007ec54                net_set_udp_handler
                0x0007ec74                net_get_arp_handler
                0x0007ec84                net_set_arp_handler
                0x0007eca4                NetSetTimeout
                0x0007ece4                NetStartAgain
                0x0007ee3c                NetCksum
                0x0007ee70                NetCksumOk
                0x0007ee94                NetReceive
                0x0007f130                NetEthHdrSize
                0x0007f16c                NetSetEther
                0x0007f214                net_update_ether
                0x0007f290                net_set_ip_header
                0x0007f31c                net_set_udp_header
                0x0007f3c8                NetSendUDPPacket
                0x0007f4d0                copy_filename
                0x0007f544                random_port
                0x0007f564                ip_to_string
                0x0007f59c                VLAN_to_string
                0x0007f5e8                string_to_VLAN
                0x0007f630                getenv_VLAN
                0x0007f700                net_init
                0x0007f76c                NetLoop
                0x000806c0                NfsStart
                0x0008090c                ping_start
                0x00080a2c                ping_receive
                0x0008120c                RecoverRequest
                0x00081818                TftpStart
 .text          0x00081b0c     0x3158 board/mv_ebu/a38x/liba38x.o
                0x00081b0c                mv_print_map
                0x00081b80                print_mvBanner
                0x00081c18                maskAllInt
                0x00081c4c                enable_caches
                0x00081c50                misc_init_r_dec_win
                0x00081c9c                misc_init_r_env
                0x00082abc                kick_next
                0x00082bd4                board_late_init
                0x00082c30                pcie_tune
                0x00082c68                board_eth_init
                0x00082c98                board_mmc_init
                0x00082cc0                print_cpuinfo
                0x00082cc8                board_early_init_f
                0x00082d08                misc_init_r
                0x00082dac                mvTclkGet
                0x00082dd4                mvSysClkGet
                0x00082dfc                late_print_cpuinfo
                0x00082fd0                board_init
                0x00083080                reset_cpu
                0x00083084                mv_cpu_init
                0x00083088                mv_set_power_scheme
                0x0008308c                save_env
                0x000830fc                restore_env
                0x0008315c                fsload
                0x000831c0                do_stage_boot
                0x00083bd4                bm_item_print
                0x00083be8                do_boot_menu
                0x000841a8                mvVerifyRequest
                0x00084218                do_sar_default
                0x000842a0                sar_cmd_get
                0x00084334                do_sar_list
                0x00084680                do_sar_read
                0x000849c8                do_sar_write
                0x00084ac0                do_sar
 .text          0x00084c64      0x27c drivers/net/sk98lin/libsk98lin.o(uboot_drv.o)
                0x00084e48                skge_initialize
 .text          0x00084ee0      0x180 drivers/net/sk98lin/libsk98lin.o(uboot_skb.o)
                0x00084ee0                alloc_skb
                0x00084fcc                dev_kfree_skb_any
                0x00085040                skb_reserve
                0x00085050                skb_put
 .text          0x00085060     0x1a7c drivers/net/sk98lin/libsk98lin.o(sky2.o)
                0x00085288                SkY2RestartStatusUnit
                0x000852c8                SkY2RlmtSend
                0x000852d0                SkY2AllocateResources
                0x00085590                SkY2FreeResources
                0x000855e8                SkY2FreeRxBuffers
                0x000856c8                SkY2FreeTxBuffers
                0x000857ac                SkY2Xmit
                0x0008588c                SkY2PortStop
                0x00085914                SkY2PortStart
                0x00085b94                FillReceiveTableYukon2
                0x00085f70                SkY2Isr
                0x00086ad8                SkY2AllocateRxBuffers
 .text          0x00086adc     0x365c drivers/net/sk98lin/libsk98lin.o(skge.o)
                0x00086e64                skge_probe
                0x000886cc                SkGeCheckTimer
                0x000886ec                SkGeXmit
                0x00088738                xchg
                0x00088748                SkDrvAllocRlmtMbuf
                0x00088798                SkDrvFreeRlmtMbuf
                0x000887c0                SkOsGetTime
                0x000887f4                ReceiveIrq
                0x00088c24                SkGeIsrOnePort
                0x00088d44                SkGeIsr
                0x00088ed8                SkPciReadCfgDWord
                0x00088ef4                SkPciReadCfgWord
                0x00088f10                SkPciReadCfgByte
                0x00088f2c                SkPciWriteCfgDWord
                0x00088f48                SkPciWriteCfgWord
                0x00088f64                SkPciWriteCfgByte
                0x00088f80                SkLocalEventQueue
                0x00088fcc                SkGeClose
                0x00089320                SkGeOpen
                0x000895dc                SkLocalEventQueue64
                0x00089630                SkDrvEvent
                0x00089fc4                SkErrorLog
                0x0008a0b4                SkDrvEnterDiagMode
 .text          0x0008a138      0x224 drivers/net/sk98lin/libsk98lin.o(sky2le.o)
                0x0008a138                SkGeY2InitSingleLETable
                0x0008a1c0                SkGeY2InitPrefetchUnit
                0x0008a20c                SkGeY2InitStatBmu
                0x0008a2c4                SkGeY2SetPutIndex
 .text          0x0008a35c      0x3e0 drivers/net/sk98lin/libsk98lin.o(skdim.o)
                0x0008a3c8                SkDimModerate
                0x0008a644                SkDimStartModerationTimer
                0x0008a6c4                SkDimEnableModerationIfNeeded
                0x0008a6e8                SkDimDisableModeration
 .text          0x0008a73c     0x11a4 drivers/net/sk98lin/libsk98lin.o(skaddr.o)
                0x0008a73c                SkAddrInit
                0x0008abb4                SkGmacMcHash
                0x0008ac24                SkAddrGmacMcAdd
                0x0008ad08                SkAddrMcAdd
                0x0008ad44                SkAddrGmacPromiscuousChange
                0x0008af08                SkAddrPromiscuousChange
                0x0008af38                SkAddrGmacMcUpdate
                0x0008b0fc                SkAddrMcUpdate
                0x0008b120                SkAddrOverride
                0x0008b5e0                SkAddrGmacMcClear
                0x0008b6b8                SkAddrMcClear
                0x0008b6f0                SkAddrSwap
 .text          0x0008b8e0     0x21ec drivers/net/sk98lin/libsk98lin.o(skgeinit.o)
                0x0008bd1c                SkGePortVlan
                0x0008bd54                SkGeRxRss
                0x0008bd88                SkGeRxCsum
                0x0008bdbc                SkGePollRxD
                0x0008bde4                SkGePollTxD
                0x0008be38                SkGeYellowLED
                0x0008be5c                SkGeXmitLED
                0x0008bee4                SkGeInitAssignRamToQueues
                0x0008c188                DoInitRamQueue
                0x0008c2f8                SkGeInitRamIface
                0x0008c39c                SkGeStopPort
                0x0008c818                SkGeInit
                0x0008d3cc                SkGeDeInit
                0x0008d48c                SkGeInitPort
                0x0008d7b0                SkYuk2RestartRxBmu
 .text          0x0008dacc     0x15d4 drivers/net/sk98lin/libsk98lin.o(skgesirq.o)
                0x0008e280                SkHWLinkDown
                0x0008e584                SkHWLinkUp
                0x0008e630                SkGeSirqIsr
                0x0008e644                SkGeYuSirqIsr
                0x0008ea94                SkYuk2SirqIsr
                0x0008ebbc                SkGeSirqEvent
 .text          0x0008f0a0      0xe80 drivers/net/sk98lin/libsk98lin.o(sktwsi.o)
                0x0008f3cc                SkI2cWait
                0x0008f468                SkI2cWaitIrq
                0x0008f518                SkI2cWrite
                0x0008f568                SkI2cReadSensor
                0x0008f588                SkI2cInit
                0x0008fc70                SkI2cIsr
                0x0008fc98                SkI2cEvent
 .text          0x0008ff20      0x168 drivers/net/sk98lin/libsk98lin.o(sklm80.o)
                0x0008ff20                SkLm80ReadSensor
 .text          0x00090088      0x20c drivers/net/sk98lin/libsk98lin.o(skqueue.o)
                0x00090088                SkEventInit
                0x000900ac                SkEventQueue
                0x0009013c                SkEventDispatcher
 .text          0x00090294     0x313c drivers/net/sk98lin/libsk98lin.o(skrlmt.o)
                0x00090294                SkRlmtBuildCheckChain
                0x000903c4                SkRlmtBuildPacket
                0x00090518                SkRlmtBuildSpanningTreePacket
                0x00090680                SkRlmtSend
                0x00090804                SkRlmtSelectBcRx
                0x0009092c                SkRlmtSelectNotSuspect
                0x000909e4                SkRlmtSelectUp
                0x00090aa8                SkRlmtSelectGoingUp
                0x00090b90                SkRlmtSelectDown
                0x00090c54                SkRlmtCheckSwitch
                0x00091218                SkRlmtPortReceives
                0x000912ec                SkRlmtCheckPort
                0x000914e0                SkRlmtCheckSeg
                0x00091610                SkRlmtPacketReceive
                0x00091c54                SkRlmtPortStart
                0x00091cb0                SkRlmtEvtPortStartTim
                0x00091d30                SkRlmtEvtLinkUp
                0x00092020                SkRlmtEvtPortUpTim
                0x000920c0                SkRlmtEvtPortDownX
                0x000921ec                SkRlmtEvtPortAddr
                0x000922a4                SkRlmtEvtStop
                0x00092444                SkRlmtEvtTim
                0x00092650                SkRlmtEvtSegTim
                0x00092660                SkRlmtEvtPacketRx
                0x000926d8                SkRlmtEvtStatsClear
                0x00092758                SkRlmtEvtStatsUpdate
                0x0009275c                SkRlmtEvtPrefportChange
                0x000927f8                SkRlmtEvtSetNets
                0x00092a14                SkRlmtEvtModeChange
                0x00092c9c                SkRlmtEvent
                0x00092e7c                SkRlmtEvtStart
                0x00092fcc                SkRlmtEvtLinkDown
                0x00093070                SkRlmtInit
 .text          0x000933d0      0x298 drivers/net/sk98lin/libsk98lin.o(sktimer.o)
                0x000934b0                SkTimerStop
                0x00093534                SkTimerStart
                0x00093620                SkTimerDone
                0x00093628                SkTimerInit
 .text          0x00093668     0x1b10 drivers/net/sk98lin/libsk98lin.o(skxmac2.o)
                0x00093754                SkGmPhyRead
                0x0009382c                SkGmPhyWrite
                0x0009444c                SkMacPromiscMode
                0x00094480                SkMacHashing
                0x000944b4                SkMacFlushTxFifo
                0x000944b8                SkMacFlushRxFifo
                0x000944bc                SkMacHardRst
                0x000944f8                SkMacClearRst
                0x0009450c                SkMacInitPhy
                0x00094520                SkMacSetRxTxEn
                0x00094580                SkMacRxTxEnable
                0x0009466c                SkMacAutoNegDone
                0x000948f8                SkMacRxTxDisable
                0x00094924                SkMacSoftRst
                0x000949f8                SkMacIrqDisable
                0x00094a30                SkMacAutoNegLipaPhy
                0x00094a58                SkMacIrq
                0x00094b08                SkGmUpdateStats
                0x00094b10                SkGmMacStatistic
                0x00094b74                SkGmResetCounter
                0x00094bbc                SkGmInitMac
                0x00094e54                SkGmOverflowStatus
                0x00094ef8                SkGmCableDiagStatus
 .text          0x00095178      0x1cc drivers/net/sk98lin/libsk98lin.o(skgehwt.o)
                0x00095178                SkHwtInit
                0x000951b8                SkHwtStart
                0x00095218                SkHwtStop
                0x0009523c                SkHwtRead
                0x00095308                SkHwtIsr
 .text          0x00095344       0x28 /home/kfyao/Marvell/A385_uboot_T3/u-boot-2013.01/arch/arm/lib/eabi_compat.o
                0x00095344                raise
                0x00095364                __aeabi_unwind_cpp_pr0
                0x00095368                __aeabi_unwind_cpp_pr1
 .text          0x0009536c      0x20c /opt/Marvell_toolchain_2014T2/le/armv7-marvell-linux-gnueabi-softfp_i686_64K_Dev_20131002/bin/../lib/gcc/arm-marvell-linux-gnueabi/4.6.4/libgcc.a(_udivsi3.o)
                0x0009536c                __udivsi3
                0x0009536c                __aeabi_uidiv
                0x00095558                __aeabi_uidivmod
 .text          0x00095578      0x240 /opt/Marvell_toolchain_2014T2/le/armv7-marvell-linux-gnueabi-softfp_i686_64K_Dev_20131002/bin/../lib/gcc/arm-marvell-linux-gnueabi/4.6.4/libgcc.a(_divsi3.o)
                0x00095578                __aeabi_idiv
                0x00095578                __divsi3
                0x00095798                __aeabi_idivmod
 .text          0x000957b8       0x1c /opt/Marvell_toolchain_2014T2/le/armv7-marvell-linux-gnueabi-softfp_i686_64K_Dev_20131002/bin/../lib/gcc/arm-marvell-linux-gnueabi/4.6.4/libgcc.a(_lshrdi3.o)
                0x000957b8                __aeabi_llsr
                0x000957b8                __lshrdi3
 .text          0x000957d4       0x1c /opt/Marvell_toolchain_2014T2/le/armv7-marvell-linux-gnueabi-softfp_i686_64K_Dev_20131002/bin/../lib/gcc/arm-marvell-linux-gnueabi/4.6.4/libgcc.a(_ashldi3.o)
                0x000957d4                __ashldi3
                0x000957d4                __aeabi_llsl
 .text          0x000957f0       0x3c /opt/Marvell_toolchain_2014T2/le/armv7-marvell-linux-gnueabi-softfp_i686_64K_Dev_20131002/bin/../lib/gcc/arm-marvell-linux-gnueabi/4.6.4/libgcc.a(_aeabi_uldivmod.o)
                0x000957f0                __aeabi_uldivmod
 .text          0x0009582c       0x10 /opt/Marvell_toolchain_2014T2/le/armv7-marvell-linux-gnueabi-softfp_i686_64K_Dev_20131002/bin/../lib/gcc/arm-marvell-linux-gnueabi/4.6.4/libgcc.a(_dvmd_lnx.o)
                0x0009582c                __aeabi_ldiv0
                0x0009582c                __aeabi_idiv0
 .text          0x0009583c       0x80 /opt/Marvell_toolchain_2014T2/le/armv7-marvell-linux-gnueabi-softfp_i686_64K_Dev_20131002/bin/../lib/gcc/arm-marvell-linux-gnueabi/4.6.4/libgcc.a(bpabi.o)
                0x0009583c                __gnu_ldivmod_helper
                0x0009587c                __gnu_uldivmod_helper
 .text          0x000958bc      0x490 /opt/Marvell_toolchain_2014T2/le/armv7-marvell-linux-gnueabi-softfp_i686_64K_Dev_20131002/bin/../lib/gcc/arm-marvell-linux-gnueabi/4.6.4/libgcc.a(_divdi3.o)
                0x000958bc                __divdi3
 .text          0x00095d4c      0x42c /opt/Marvell_toolchain_2014T2/le/armv7-marvell-linux-gnueabi-softfp_i686_64K_Dev_20131002/bin/../lib/gcc/arm-marvell-linux-gnueabi/4.6.4/libgcc.a(_udivdi3.o)
                0x00095d4c                __udivdi3

.glue_7         0x00096178        0x0
 .glue_7        0x00000000        0x0 linker stubs

.glue_7t        0x00096178        0x0
 .glue_7t       0x00000000        0x0 linker stubs

.vfp11_veneer   0x00096178        0x0
 .vfp11_veneer  0x00000000        0x0 linker stubs

.v4_bx          0x00096178        0x0
 .v4_bx         0x00000000        0x0 linker stubs

.iplt           0x00096178        0x0
 .iplt          0x00000000        0x0 arch/arm/cpu/armv7/start.o
                0x00096178                . = ALIGN (0x4)

.rodata         0x00096178    0x1f846
 *(SORT(.rodata*))
 .rodata        0x00096178       0x80 arch/arm/lib/libarm.o
 .rodata        0x000961f8      0x859 board/mv_ebu/common/libmv_ebu.o
 *fill*         0x00096a51        0x3 00
 .rodata        0x00096a54      0x654 common/libcommon.o
                0x00096bef                version_string
                0x00096c51                default_environment
 .rodata        0x000970a8       0xbe disk/libdisk.o
 *fill*         0x00097166        0x2 00
 .rodata        0x00097168       0x94 drivers/input/libinput.o
 .rodata        0x000971fc       0xdc drivers/mmc/libmmc.o
 .rodata        0x000972d8       0x1c drivers/mtd/libmtd.o
 .rodata        0x000972f4      0x190 drivers/mtd/spi/libspi_flash.o
 .rodata        0x00097484      0x72c drivers/mtd/ubi/libubi.o
 .rodata        0x00097bb0       0x30 drivers/rtc/librtc.o
 .rodata        0x00097be0       0x20 drivers/serial/libserial.o
 .rodata        0x00097c00       0x78 drivers/usb/eth/libusb_eth.o
 .rodata        0x00097c78       0x18 fs/fat/libfat.o
 .rodata        0x00097c90       0xd3 fs/jffs2/libjffs2.o
 *fill*         0x00097d63        0x1 00
 .rodata        0x00097d64       0x10 fs/libfs.o
 .rodata        0x00097d74      0x64c fs/ubifs/libubifs.o
                0x000980a8                crc16_table
 .rodata        0x000983c0       0x34 lib/libfdt/libfdt.o
 .rodata        0x000983f4      0x817 lib/libgeneric.o
                0x000989f4                crc7_syndrome_table
                0x00098af4                _ctype
 *fill*         0x00098c0b        0x1 00
 .rodata        0x00098c0c      0x9cc lib/zlib/libz.o
                0x000995b0                z_errmsg
 .rodata        0x000995d8      0x3b4 drivers/net/sk98lin/libsk98lin.o(skge.o)
 .rodata        0x0009998c       0x18 drivers/net/sk98lin/libsk98lin.o(skgeinit.o)
 .rodata        0x000999a4      0x252 fs/ext4/libext4fs.o
 .rodata        0x00099bf6        0xe api/libapi.o
 .rodata        0x00099c04       0x40 drivers/block/libblock.o
 .rodata        0x00099c44       0x16 drivers/net/libnet.o
 .rodata        0x00099c5a      0x1e5 drivers/usb/host/libusb_host.o
 .rodata        0x00099e3f        0x9 lib/lzo/liblzo.o
 .rodata        0x00099e48       0x22 net/libnet.o
 .rodata.str1.1
                0x00099e6a       0xab api/libapi.o
                                 0xac (size before relaxing)
 .rodata.str1.1
                0x00099f15      0x4a7 arch/arm/lib/libarm.o
                                0x4df (size before relaxing)
 .rodata.str1.1
                0x0009a3bc     0x818d board/mv_ebu/common/libmv_ebu.o
                               0x8766 (size before relaxing)
 .rodata.str1.1
                0x000a2549     0x8ac8 common/libcommon.o
                               0x958e (size before relaxing)
 .rodata.str1.1
                0x000ab011      0x942 disk/libdisk.o
                                0xa04 (size before relaxing)
 .rodata.str1.1
                0x000ab953      0x58f drivers/block/libblock.o
                                0x5bf (size before relaxing)
 .rodata.str1.1
                0x000abee2       0x10 drivers/input/libinput.o
                                 0x16 (size before relaxing)
 .rodata.str1.1
                0x000abef2      0x324 drivers/mmc/libmmc.o
                                0x39c (size before relaxing)
 .rodata.str1.1
                0x000ac216      0x5e9 drivers/mtd/libmtd.o
                                0x637 (size before relaxing)
 .rodata.str1.1
                0x000ac7ff      0x163 drivers/mtd/spi/libspi_flash.o
                                0x167 (size before relaxing)
 .rodata.str1.1
                0x000ac962     0x178f drivers/mtd/ubi/libubi.o
                               0x1b60 (size before relaxing)
 .rodata.str1.1
                0x000ae0f1      0x46d drivers/net/libnet.o
 .rodata.str1.1
                0x000ae55e      0x1b4 drivers/pci/libpci.o
                                0x216 (size before relaxing)
 .rodata.str1.1
                0x000ae712       0x57 drivers/serial/libserial.o
                                 0x92 (size before relaxing)
 .rodata.str1.1
                0x000ae769       0xc2 drivers/usb/eth/libusb_eth.o
                                 0xef (size before relaxing)
 .rodata.str1.1
                0x000ae82b      0x5aa drivers/usb/host/libusb_host.o
                                0x610 (size before relaxing)
 .rodata.str1.1
                0x000aedd5      0x638 fs/ext4/libext4fs.o
                                0x640 (size before relaxing)
 .rodata.str1.1
                0x000af40d      0x1c9 fs/fat/libfat.o
                                0x1f6 (size before relaxing)
 .rodata.str1.1
                0x000af5d6      0x310 fs/jffs2/libjffs2.o
                                0x323 (size before relaxing)
 .rodata.str1.1
                0x000af8e6       0xb8 fs/libfs.o
                                 0xe1 (size before relaxing)
 .rodata.str1.1
                0x000af99e     0x17a7 fs/ubifs/libubifs.o
                               0x19c9 (size before relaxing)
 .rodata.str1.1
                0x000b1145       0xfc lib/libfdt/libfdt.o
                                0x11c (size before relaxing)
 .rodata.str1.1
                0x000b1241      0x1e7 lib/libgeneric.o
                                0x201 (size before relaxing)
 .rodata.str1.1
                0x000b1428      0x21c lib/zlib/libz.o
                                0x21d (size before relaxing)
 .rodata.str1.1
                0x000b1644      0xa21 net/libnet.o
                                0xbee (size before relaxing)
 .rodata.str1.1
                0x000b2065     0x21fc board/mv_ebu/a38x/liba38x.o
                               0x262a (size before relaxing)
 .rodata.str1.1
                0x000b4261       0x48 drivers/net/sk98lin/libsk98lin.o(uboot_drv.o)
 .rodata.str1.1
                0x000b42a9       0x4a drivers/net/sk98lin/libsk98lin.o(uboot_skb.o)
 .rodata.str1.1
                0x000b42f3       0x67 drivers/net/sk98lin/libsk98lin.o(sky2.o)
 .rodata.str1.1
                0x000b435a      0xbc7 drivers/net/sk98lin/libsk98lin.o(skge.o)
                                0xc40 (size before relaxing)
 .rodata.str1.1
                0x000b4f21       0x6c drivers/net/sk98lin/libsk98lin.o(skaddr.o)
 .rodata.str1.1
                0x000b4f8d      0x1fc drivers/net/sk98lin/libsk98lin.o(skgeinit.o)
 .rodata.str1.1
                0x000b5189      0x33a drivers/net/sk98lin/libsk98lin.o(skgesirq.o)
 .rodata.str1.1
                0x000b54c3      0x25f drivers/net/sk98lin/libsk98lin.o(sktwsi.o)
                                0x275 (size before relaxing)
 .rodata.str1.1
                0x000b5722       0x17 drivers/net/sk98lin/libsk98lin.o(sklm80.o)
 .rodata.str1.1
                0x000b5739       0x90 drivers/net/sk98lin/libsk98lin.o(skqueue.o)
 .rodata.str1.1
                0x000b57c9      0x118 drivers/net/sk98lin/libsk98lin.o(skrlmt.o)
 .rodata.str1.1
                0x000b58e1       0xc2 drivers/net/sk98lin/libsk98lin.o(skxmac2.o)
 .rodata.str1.1
                0x000b59a3       0x1b /home/kfyao/Marvell/A385_uboot_T3/u-boot-2013.01/arch/arm/lib/eabi_compat.o

.hash           0x000b59c0       0x58
 .hash          0x000b59c0       0x58 arch/arm/cpu/armv7/start.o

.ARM.extab      0x000b5a18        0x0
 .ARM.extab     0x000b5a18        0x0 /opt/Marvell_toolchain_2014T2/le/armv7-marvell-linux-gnueabi-softfp_i686_64K_Dev_20131002/bin/../lib/gcc/arm-marvell-linux-gnueabi/4.6.4/libgcc.a(bpabi.o)
 .ARM.extab     0x000b5a18        0x0 /opt/Marvell_toolchain_2014T2/le/armv7-marvell-linux-gnueabi-softfp_i686_64K_Dev_20131002/bin/../lib/gcc/arm-marvell-linux-gnueabi/4.6.4/libgcc.a(_divdi3.o)
 .ARM.extab     0x000b5a18        0x0 /opt/Marvell_toolchain_2014T2/le/armv7-marvell-linux-gnueabi-softfp_i686_64K_Dev_20131002/bin/../lib/gcc/arm-marvell-linux-gnueabi/4.6.4/libgcc.a(_udivdi3.o)

.ARM.exidx      0x000b5a18       0x20
 .ARM.exidx     0x000b5a18        0x8 /opt/Marvell_toolchain_2014T2/le/armv7-marvell-linux-gnueabi-softfp_i686_64K_Dev_20131002/bin/../lib/gcc/arm-marvell-linux-gnueabi/4.6.4/libgcc.a(bpabi.o)
                                 0x10 (size before relaxing)
 .ARM.exidx     0x000b5a20        0x8 /opt/Marvell_toolchain_2014T2/le/armv7-marvell-linux-gnueabi-softfp_i686_64K_Dev_20131002/bin/../lib/gcc/arm-marvell-linux-gnueabi/4.6.4/libgcc.a(_divdi3.o)
 .ARM.exidx     0x000b5a28       0x10 /opt/Marvell_toolchain_2014T2/le/armv7-marvell-linux-gnueabi-softfp_i686_64K_Dev_20131002/bin/../lib/gcc/arm-marvell-linux-gnueabi/4.6.4/libgcc.a(_udivdi3.o)
                                  0x8 (size before relaxing)
                0x000b5a38                . = ALIGN (0x4)

.data           0x000b5a38     0x5fea
 *(.data*)
 .data          0x000b5a38        0x0 arch/arm/cpu/armv7/start.o
 .data          0x000b5a38       0x64 api/libapi.o
 .data          0x000b5a9c        0x0 arch/arm/cpu/armv7/libarmv7.o
 .data          0x000b5a9c        0x0 arch/arm/cpu/armv7/mvca9/libmvca9.o
 .data          0x000b5a9c       0x30 arch/arm/lib/libarm.o
                0x000b5a9c                init_sequence
 .data          0x000b5acc     0x347c board/mv_ebu/common/libmv_ebu.o
                0x000b5b34                flashDeviceInfo
                0x000b605c                xorAddrDecPrioTap
                0x000b6090                usbAddrDecPrioTab
                0x000b60a0                pexDevBarPrioTable
                0x000b60b4                sdmmcAddrDecPrioTab
                0x000b60c0                sataAddrDecPrioTab
                0x000b60d0                sata3AddrDecPrioTab
                0x000b60dc                mvTargetDefaultsArray
                0x000b61ec                mvCtrlSocUnitNums
                0x000b6350                satrBootSrcTable
                0x000b7914                boardModuleTypesInfo
                0x000b7a34                boardSatrInfo
                0x000b7eb4                boardSatrInfo2
                0x000b7f74                marvellBoardInfoTbl
                0x000b7f88                dbGP88f68XX_board_info
                0x000b8094                dbGP88f68XXInfoBoardioExpValue
                0x000b80ac                dbGP88f68XXInfoBoardMppConfigValue
                0x000b8198                dbGP88F68XXInfoBoardDeCsInfo
                0x000b81a8                dbGP88F68XXInfoBoardMacInfo
                0x000b81cc                dbGP88F68XXInfoBoardTwsiDev
                0x000b81f4                dbAP88f68xx_board_info
                0x000b8300                dbAP88f68xxTdmSpiInfo
                0x000b8304                dbAP88f68xxInfoBoardDeCsInfo
                0x000b8324                dbAP88f68xxInfoBoardMacInfo
                0x000b8348                dbAP88f68xxInfoBoardTwsiDev
                0x000b83a0                dbAP88f68xxInfoBoardMppConfigValue
                0x000b848c                rdWAP88f68XX_board_info
                0x000b8598                ioExpWap
                0x000b85b0                rdWap88f68XXInfoBoardMppConfigValue
                0x000b869c                rdNas88f68XX_board_info
                0x000b87a8                ioExpNas
                0x000b87c0                rdNas88f68XXInfoBoardMppConfigValue
                0x000b88ac                rd88F68XXInfoBoardDeCsInfo
                0x000b88bc                rd88F68XXInfoBoardMacInfo
                0x000b88d4                rd88F68XXInfoBoardTwsiDev
                0x000b88f4                db88f68xx_board_info
                0x000b8a00                db88f68xxTdmSpiInfo
                0x000b8a04                db88f68xxInfoBoardDeCsInfo
                0x000b8a24                db88f68xxInfoBoardMacInfo
                0x000b8a48                db88f68xxInfoBoardTwsiDev
                0x000b8aa0                db88f68xxInfoBoardMppConfigValue
                0x000b8b8c                customerBoardInfoTbl
                0x000b8b94                armada_38x_customer_board_0_info
                0x000b8ca0                armada_38x_customer_0_IoExpanderInfo
                0x000b8cb8                armada_38x_customer_0_BoardMppConfigValue
                0x000b8da4                armada_38x_customer_0_BoardDeCsInfo
                0x000b8dc4                armada_38x_customer_0_BoardMacInfo
                0x000b8ddc                armada_38x_customer_0_BoardTwsiDev
                0x000b8e2c                i2c_current_speed
                0x000b8e3c                switchMultiChipMode
                0x000b8e40                hc_ehci
                0x000b8e5c                hc_xhci
                0x000b8e78                mv_config_table
                0x000b8f3c                ethAddrDecPrioTab
 .data          0x000b8f48     0x2064 common/libcommon.o
                0x000baeec                env_htab
                0x000baefc                env_name_spec
                0x000baf98                load_addr
                0x000bafa0                stdio_names
 .data          0x000bafac       0x10 disk/libdisk.o
 .data          0x000bafbc        0x0 drivers/block/libblock.o
 .data          0x000bafbc       0xc6 drivers/input/libinput.o
 *fill*         0x000bb082        0x2 00
 .data          0x000bb084        0x8 drivers/mmc/libmmc.o
 .data          0x000bb08c        0x0 drivers/mtd/libmtd.o
 .data          0x000bb08c        0x4 drivers/mtd/spi/libspi_flash.o
                0x000bb08c                print1block
 .data          0x000bb090        0x0 drivers/mtd/ubi/libubi.o
 .data          0x000bb090      0x168 drivers/net/libnet.o
 .data          0x000bb1f8        0x0 drivers/pci/libpci.o
 .data          0x000bb1f8        0x0 drivers/pcmcia/libpcmcia.o
 .data          0x000bb1f8       0x30 drivers/rtc/librtc.o
 .data          0x000bb228        0x0 drivers/serial/libserial.o
 .data          0x000bb228        0x0 drivers/usb/eth/libusb_eth.o
 .data          0x000bb228       0x76 drivers/usb/host/libusb_host.o
 *fill*         0x000bb29e        0x2 00
 .data          0x000bb2a0       0x28 fs/ext4/libext4fs.o
                0x000bb2b8                ext4fs_indir1_blkno
                0x000bb2bc                ext4fs_indir2_blkno
                0x000bb2c0                ext4fs_indir3_blkno
 .data          0x000bb2c8      0x204 fs/fat/libfat.o
                0x000bb2c8                file_cwd
 .data          0x000bb4cc        0x0 fs/jffs2/libjffs2.o
 .data          0x000bb4cc        0x0 fs/libfs.o
 .data          0x000bb4cc       0x50 fs/ubifs/libubifs.o
 .data          0x000bb51c        0x0 lib/libfdt/libfdt.o
 .data          0x000bb51c        0x0 lib/libgeneric.o
 .data          0x000bb51c        0x0 lib/lzo/liblzo.o
 .data          0x000bb51c        0x0 lib/zlib/libz.o
 .data          0x000bb51c       0x2c net/libnet.o
                0x000bb51c                NetOurVLAN
                0x000bb51e                NetOurNativeVLAN
                0x000bb520                NetBcastAddr
                0x000bb540                TftpRRQTimeoutCountMax
                0x000bb544                TftpRRQTimeoutMSecs
 .data          0x000bb548      0x424 board/mv_ebu/a38x/liba38x.o
                0x000bb548                mvCpuAddrWinMap
                0x000bb890                boardSatrDefault
                0x000bb908                cpuDdrClkTbl
 .data          0x000bb96c        0x0 drivers/net/sk98lin/libsk98lin.o(uboot_drv.o)
 .data          0x000bb96c        0x0 drivers/net/sk98lin/libsk98lin.o(uboot_skb.o)
 .data          0x000bb96c        0x0 drivers/net/sk98lin/libsk98lin.o(sky2.o)
 .data          0x000bb96c       0x9c drivers/net/sk98lin/libsk98lin.o(skge.o)
 .data          0x000bba08        0x0 drivers/net/sk98lin/libsk98lin.o(sky2le.o)
 .data          0x000bba08        0x0 drivers/net/sk98lin/libsk98lin.o(skdim.o)
 .data          0x000bba08        0x8 drivers/net/sk98lin/libsk98lin.o(skaddr.o)
                0x000bba08                OnesHash
 .data          0x000bba10        0x0 drivers/net/sk98lin/libsk98lin.o(skgeinit.o)
 .data          0x000bba10        0x0 drivers/net/sk98lin/libsk98lin.o(skgesirq.o)
 .data          0x000bba10        0x0 drivers/net/sk98lin/libsk98lin.o(sktwsi.o)
 .data          0x000bba10        0x0 drivers/net/sk98lin/libsk98lin.o(sklm80.o)
 .data          0x000bba10        0x0 drivers/net/sk98lin/libsk98lin.o(skqueue.o)
 .data          0x000bba10       0x12 drivers/net/sk98lin/libsk98lin.o(skrlmt.o)
                0x000bba10                BridgeMcAddr
                0x000bba16                SkRlmtMcAddr
                0x000bba1c                BcAddr
 .data          0x000bba22        0x0 drivers/net/sk98lin/libsk98lin.o(sktimer.o)
 .data          0x000bba22        0x0 drivers/net/sk98lin/libsk98lin.o(skxmac2.o)
 .data          0x000bba22        0x0 drivers/net/sk98lin/libsk98lin.o(skgehwt.o)
 .data          0x000bba22        0x0 /home/kfyao/Marvell/A385_uboot_T3/u-boot-2013.01/arch/arm/lib/eabi_compat.o
 .data          0x000bba22        0x0 /opt/Marvell_toolchain_2014T2/le/armv7-marvell-linux-gnueabi-softfp_i686_64K_Dev_20131002/bin/../lib/gcc/arm-marvell-linux-gnueabi/4.6.4/libgcc.a(_udivsi3.o)
 .data          0x000bba22        0x0 /opt/Marvell_toolchain_2014T2/le/armv7-marvell-linux-gnueabi-softfp_i686_64K_Dev_20131002/bin/../lib/gcc/arm-marvell-linux-gnueabi/4.6.4/libgcc.a(_divsi3.o)
 .data          0x000bba22        0x0 /opt/Marvell_toolchain_2014T2/le/armv7-marvell-linux-gnueabi-softfp_i686_64K_Dev_20131002/bin/../lib/gcc/arm-marvell-linux-gnueabi/4.6.4/libgcc.a(_lshrdi3.o)
 .data          0x000bba22        0x0 /opt/Marvell_toolchain_2014T2/le/armv7-marvell-linux-gnueabi-softfp_i686_64K_Dev_20131002/bin/../lib/gcc/arm-marvell-linux-gnueabi/4.6.4/libgcc.a(_ashldi3.o)
 .data          0x000bba22        0x0 /opt/Marvell_toolchain_2014T2/le/armv7-marvell-linux-gnueabi-softfp_i686_64K_Dev_20131002/bin/../lib/gcc/arm-marvell-linux-gnueabi/4.6.4/libgcc.a(_aeabi_uldivmod.o)
 .data          0x000bba22        0x0 /opt/Marvell_toolchain_2014T2/le/armv7-marvell-linux-gnueabi-softfp_i686_64K_Dev_20131002/bin/../lib/gcc/arm-marvell-linux-gnueabi/4.6.4/libgcc.a(_dvmd_lnx.o)
 .data          0x000bba22        0x0 /opt/Marvell_toolchain_2014T2/le/armv7-marvell-linux-gnueabi-softfp_i686_64K_Dev_20131002/bin/../lib/gcc/arm-marvell-linux-gnueabi/4.6.4/libgcc.a(bpabi.o)
 .data          0x000bba22        0x0 /opt/Marvell_toolchain_2014T2/le/armv7-marvell-linux-gnueabi-softfp_i686_64K_Dev_20131002/bin/../lib/gcc/arm-marvell-linux-gnueabi/4.6.4/libgcc.a(_divdi3.o)
 .data          0x000bba22        0x0 /opt/Marvell_toolchain_2014T2/le/armv7-marvell-linux-gnueabi-softfp_i686_64K_Dev_20131002/bin/../lib/gcc/arm-marvell-linux-gnueabi/4.6.4/libgcc.a(_udivdi3.o)

.got            0x000bba24        0x0
 .got           0x00000000        0x0 arch/arm/cpu/armv7/start.o

.got.plt        0x000bba24        0xc
 .got.plt       0x000bba24        0xc arch/arm/cpu/armv7/start.o
                0x000bba24                _GLOBAL_OFFSET_TABLE_

.igot.plt       0x000bba30        0x0
 .igot.plt      0x00000000        0x0 arch/arm/cpu/armv7/start.o
                0x000bba30                . = ALIGN (0x4)
                0x000bba30                . = .
                0x000bba30                . = ALIGN (0x4)

.u_boot_list    0x000bba30      0xd34
                0x000bba30                _u_boot_list__start = .
                0x000bba30                _u_boot_list_cmd__start = .
 *(SORT(.u_boot_list.cmd.*))
 .u_boot_list.cmd.Creset
                0x000bba30       0x1c board/mv_ebu/common/libmv_ebu.o
                0x000bba30                _u_boot_list_cmd_Creset
 .u_boot_list.cmd.SatR
                0x000bba4c       0x1c board/mv_ebu/a38x/liba38x.o
                0x000bba4c                _u_boot_list_cmd_SatR
 .u_boot_list.cmd.active_units
                0x000bba68       0x1c board/mv_ebu/common/libmv_ebu.o
                0x000bba68                _u_boot_list_cmd_active_units
 .u_boot_list.cmd.base
                0x000bba84       0x1c common/libcommon.o
                0x000bba84                _u_boot_list_cmd_base
 .u_boot_list.cmd.bdinfo
                0x000bbaa0       0x1c common/libcommon.o
                0x000bbaa0                _u_boot_list_cmd_bdinfo
 .u_boot_list.cmd.boot
                0x000bbabc       0x1c common/libcommon.o
                0x000bbabc                _u_boot_list_cmd_boot
 .u_boot_list.cmd.boot_menu
                0x000bbad8       0x1c board/mv_ebu/a38x/liba38x.o
                0x000bbad8                _u_boot_list_cmd_boot_menu
 .u_boot_list.cmd.bootd
                0x000bbaf4       0x1c common/libcommon.o
                0x000bbaf4                _u_boot_list_cmd_bootd
 .u_boot_list.cmd.bootelf
                0x000bbb10       0x1c common/libcommon.o
                0x000bbb10                _u_boot_list_cmd_bootelf
 .u_boot_list.cmd.bootm
                0x000bbb2c       0x1c common/libcommon.o
                0x000bbb2c                _u_boot_list_cmd_bootm
 .u_boot_list.cmd.bootp
                0x000bbb48       0x1c common/libcommon.o
                0x000bbb48                _u_boot_list_cmd_bootp
 .u_boot_list.cmd.bootvx
                0x000bbb64       0x1c common/libcommon.o
                0x000bbb64                _u_boot_list_cmd_bootvx
 .u_boot_list.cmd.bootz
                0x000bbb80       0x1c common/libcommon.o
                0x000bbb80                _u_boot_list_cmd_bootz
 .u_boot_list.cmd.bubt
                0x000bbb9c       0x1c board/mv_ebu/common/libmv_ebu.o
                0x000bbb9c                _u_boot_list_cmd_bubt
 .u_boot_list.cmd.chpart
                0x000bbbb8       0x1c common/libcommon.o
                0x000bbbb8                _u_boot_list_cmd_chpart
 .u_boot_list.cmd.cmp
                0x000bbbd4       0x1c common/libcommon.o
                0x000bbbd4                _u_boot_list_cmd_cmp
 .u_boot_list.cmd.coninfo
                0x000bbbf0       0x1c common/libcommon.o
                0x000bbbf0                _u_boot_list_cmd_coninfo
 .u_boot_list.cmd.cp
                0x000bbc0c       0x1c common/libcommon.o
                0x000bbc0c                _u_boot_list_cmd_cp
 .u_boot_list.cmd.crc32
                0x000bbc28       0x1c common/libcommon.o
                0x000bbc28                _u_boot_list_cmd_crc32
 .u_boot_list.cmd.date
                0x000bbc44       0x1c common/libcommon.o
                0x000bbc44                _u_boot_list_cmd_date
 .u_boot_list.cmd.ddrPhyRead
                0x000bbc60       0x1c board/mv_ebu/common/libmv_ebu.o
                0x000bbc60                _u_boot_list_cmd_ddrPhyRead
 .u_boot_list.cmd.ddrPhyWrite
                0x000bbc7c       0x1c board/mv_ebu/common/libmv_ebu.o
                0x000bbc7c                _u_boot_list_cmd_ddrPhyWrite
 .u_boot_list.cmd.dhcp
                0x000bbc98       0x1c common/libcommon.o
                0x000bbc98                _u_boot_list_cmd_dhcp
 .u_boot_list.cmd.diskboot
                0x000bbcb4       0x1c board/mv_ebu/common/libmv_ebu.o
                0x000bbcb4                _u_boot_list_cmd_diskboot
 .u_boot_list.cmd.dma
                0x000bbcd0       0x1c board/mv_ebu/common/libmv_ebu.o
                0x000bbcd0                _u_boot_list_cmd_dma
 .u_boot_list.cmd.echo
                0x000bbcec       0x1c common/libcommon.o
                0x000bbcec                _u_boot_list_cmd_echo
 .u_boot_list.cmd.editenv
                0x000bbd08       0x1c common/libcommon.o
                0x000bbd08                _u_boot_list_cmd_editenv
 .u_boot_list.cmd.eeprom
                0x000bbd24       0x1c common/libcommon.o
                0x000bbd24                _u_boot_list_cmd_eeprom
 .u_boot_list.cmd.env
                0x000bbd40       0x1c common/libcommon.o
                0x000bbd40                _u_boot_list_cmd_env
 .u_boot_list.cmd.erase
                0x000bbd5c       0x1c common/libcommon.o
                0x000bbd5c                _u_boot_list_cmd_erase
 .u_boot_list.cmd.exit
                0x000bbd78       0x1c common/libcommon.o
                0x000bbd78                _u_boot_list_cmd_exit
 .u_boot_list.cmd.ext2load
                0x000bbd94       0x1c common/libcommon.o
                0x000bbd94                _u_boot_list_cmd_ext2load
 .u_boot_list.cmd.ext2ls
                0x000bbdb0       0x1c common/libcommon.o
                0x000bbdb0                _u_boot_list_cmd_ext2ls
 .u_boot_list.cmd.ext4load
                0x000bbdcc       0x1c common/libcommon.o
                0x000bbdcc                _u_boot_list_cmd_ext4load
 .u_boot_list.cmd.ext4ls
                0x000bbde8       0x1c common/libcommon.o
                0x000bbde8                _u_boot_list_cmd_ext4ls
 .u_boot_list.cmd.ext4write
                0x000bbe04       0x1c common/libcommon.o
                0x000bbe04                _u_boot_list_cmd_ext4write
 .u_boot_list.cmd.false
                0x000bbe20       0x1c common/libcommon.o
                0x000bbe20                _u_boot_list_cmd_false
 .u_boot_list.cmd.fatinfo
                0x000bbe3c       0x1c common/libcommon.o
                0x000bbe3c                _u_boot_list_cmd_fatinfo
 .u_boot_list.cmd.fatload
                0x000bbe58       0x1c common/libcommon.o
                0x000bbe58                _u_boot_list_cmd_fatload
 .u_boot_list.cmd.fatls
                0x000bbe74       0x1c common/libcommon.o
                0x000bbe74                _u_boot_list_cmd_fatls
 .u_boot_list.cmd.fdt
                0x000bbe90       0x1c common/libcommon.o
                0x000bbe90                _u_boot_list_cmd_fdt
 .u_boot_list.cmd.flinfo
                0x000bbeac       0x1c common/libcommon.o
                0x000bbeac                _u_boot_list_cmd_flinfo
 .u_boot_list.cmd.fsinfo
                0x000bbec8       0x1c common/libcommon.o
                0x000bbec8                _u_boot_list_cmd_fsinfo
 .u_boot_list.cmd.fsload
                0x000bbee4       0x1c common/libcommon.o
                0x000bbee4                _u_boot_list_cmd_fsload
 .u_boot_list.cmd.go
                0x000bbf00       0x1c common/libcommon.o
                0x000bbf00                _u_boot_list_cmd_go
 .u_boot_list.cmd.help
                0x000bbf1c       0x1c common/libcommon.o
                0x000bbf1c                _u_boot_list_cmd_help
 .u_boot_list.cmd.i2c
                0x000bbf38       0x1c common/libcommon.o
                0x000bbf38                _u_boot_list_cmd_i2c
 .u_boot_list.cmd.ide
                0x000bbf54       0x1c board/mv_ebu/common/libmv_ebu.o
                0x000bbf54                _u_boot_list_cmd_ide
 .u_boot_list.cmd.iminfo
                0x000bbf70       0x1c common/libcommon.o
                0x000bbf70                _u_boot_list_cmd_iminfo
 .u_boot_list.cmd.imxtract
                0x000bbf8c       0x1c common/libcommon.o
                0x000bbf8c                _u_boot_list_cmd_imxtract
 .u_boot_list.cmd.ir
                0x000bbfa8       0x1c board/mv_ebu/common/libmv_ebu.o
                0x000bbfa8                _u_boot_list_cmd_ir
 .u_boot_list.cmd.itest
                0x000bbfc4       0x1c common/libcommon.o
                0x000bbfc4                _u_boot_list_cmd_itest
 .u_boot_list.cmd.loadb
                0x000bbfe0       0x1c common/libcommon.o
                0x000bbfe0                _u_boot_list_cmd_loadb
 .u_boot_list.cmd.loads
                0x000bbffc       0x1c common/libcommon.o
                0x000bbffc                _u_boot_list_cmd_loads
 .u_boot_list.cmd.loadx
                0x000bc018       0x1c common/libcommon.o
                0x000bc018                _u_boot_list_cmd_loadx
 .u_boot_list.cmd.loady
                0x000bc034       0x1c common/libcommon.o
                0x000bc034                _u_boot_list_cmd_loady
 .u_boot_list.cmd.loop
                0x000bc050       0x1c common/libcommon.o
                0x000bc050                _u_boot_list_cmd_loop
 .u_boot_list.cmd.ls
                0x000bc06c       0x1c common/libcommon.o
                0x000bc06c                _u_boot_list_cmd_ls
 .u_boot_list.cmd.map
                0x000bc088       0x1c board/mv_ebu/common/libmv_ebu.o
                0x000bc088                _u_boot_list_cmd_map
 .u_boot_list.cmd.md
                0x000bc0a4       0x1c common/libcommon.o
                0x000bc0a4                _u_boot_list_cmd_md
 .u_boot_list.cmd.me
                0x000bc0c0       0x1c board/mv_ebu/common/libmv_ebu.o
                0x000bc0c0                _u_boot_list_cmd_me
 .u_boot_list.cmd.mm
                0x000bc0dc       0x1c common/libcommon.o
                0x000bc0dc                _u_boot_list_cmd_mm
 .u_boot_list.cmd.mmc
                0x000bc0f8       0x1c common/libcommon.o
                0x000bc0f8                _u_boot_list_cmd_mmc
 .u_boot_list.cmd.mmcinfo
                0x000bc114       0x1c common/libcommon.o
                0x000bc114                _u_boot_list_cmd_mmcinfo
 .u_boot_list.cmd.mp
                0x000bc130       0x1c board/mv_ebu/common/libmv_ebu.o
                0x000bc130                _u_boot_list_cmd_mp
 .u_boot_list.cmd.mtdparts
                0x000bc14c       0x1c common/libcommon.o
                0x000bc14c                _u_boot_list_cmd_mtdparts
 .u_boot_list.cmd.mtest
                0x000bc168       0x1c common/libcommon.o
                0x000bc168                _u_boot_list_cmd_mtest
 .u_boot_list.cmd.mw
                0x000bc184       0x1c common/libcommon.o
                0x000bc184                _u_boot_list_cmd_mw
 .u_boot_list.cmd.nfs
                0x000bc1a0       0x1c common/libcommon.o
                0x000bc1a0                _u_boot_list_cmd_nfs
 .u_boot_list.cmd.nm
                0x000bc1bc       0x1c common/libcommon.o
                0x000bc1bc                _u_boot_list_cmd_nm
 .u_boot_list.cmd.pci
                0x000bc1d8       0x1c common/libcommon.o
                0x000bc1d8                _u_boot_list_cmd_pci
 .u_boot_list.cmd.pciePhyRead
                0x000bc1f4       0x1c board/mv_ebu/common/libmv_ebu.o
                0x000bc1f4                _u_boot_list_cmd_pciePhyRead
 .u_boot_list.cmd.pciePhyWrite
                0x000bc210       0x1c board/mv_ebu/common/libmv_ebu.o
                0x000bc210                _u_boot_list_cmd_pciePhyWrite
 .u_boot_list.cmd.phyRead
                0x000bc22c       0x1c board/mv_ebu/common/libmv_ebu.o
                0x000bc22c                _u_boot_list_cmd_phyRead
 .u_boot_list.cmd.phyWrite
                0x000bc248       0x1c board/mv_ebu/common/libmv_ebu.o
                0x000bc248                _u_boot_list_cmd_phyWrite
 .u_boot_list.cmd.ping
                0x000bc264       0x1c common/libcommon.o
                0x000bc264                _u_boot_list_cmd_ping
 .u_boot_list.cmd.printenv
                0x000bc280       0x1c common/libcommon.o
                0x000bc280                _u_boot_list_cmd_printenv
 .u_boot_list.cmd.protect
                0x000bc29c       0x1c common/libcommon.o
                0x000bc29c                _u_boot_list_cmd_protect
 .u_boot_list.cmd.pxe
                0x000bc2b8       0x1c common/libcommon.o
                0x000bc2b8                _u_boot_list_cmd_pxe
 .u_boot_list.cmd.question_mark
                0x000bc2d4       0x1c common/libcommon.o
                0x000bc2d4                _u_boot_list_cmd_question_mark
 .u_boot_list.cmd.rcvr
                0x000bc2f0       0x1c board/mv_ebu/common/libmv_ebu.o
                0x000bc2f0                _u_boot_list_cmd_rcvr
 .u_boot_list.cmd.reset
                0x000bc30c       0x1c common/libcommon.o
                0x000bc30c                _u_boot_list_cmd_reset
 .u_boot_list.cmd.resetenv
                0x000bc328       0x1c board/mv_ebu/common/libmv_ebu.o
                0x000bc328                _u_boot_list_cmd_resetenv
 .u_boot_list.cmd.run
                0x000bc344       0x1c common/libcommon.o
                0x000bc344                _u_boot_list_cmd_run
 .u_boot_list.cmd.saveenv
                0x000bc360       0x1c common/libcommon.o
                0x000bc360                _u_boot_list_cmd_saveenv
 .u_boot_list.cmd.scsi
                0x000bc37c       0x1c common/libcommon.o
                0x000bc37c                _u_boot_list_cmd_scsi
 .u_boot_list.cmd.scsiboot
                0x000bc398       0x1c common/libcommon.o
                0x000bc398                _u_boot_list_cmd_scsiboot
 .u_boot_list.cmd.se
                0x000bc3b4       0x1c board/mv_ebu/common/libmv_ebu.o
                0x000bc3b4                _u_boot_list_cmd_se
 .u_boot_list.cmd.setenv
                0x000bc3d0       0x1c common/libcommon.o
                0x000bc3d0                _u_boot_list_cmd_setenv
 .u_boot_list.cmd.sf
                0x000bc3ec       0x1c common/libcommon.o
                0x000bc3ec                _u_boot_list_cmd_sf
 .u_boot_list.cmd.sg
                0x000bc408       0x1c board/mv_ebu/common/libmv_ebu.o
                0x000bc408                _u_boot_list_cmd_sg
 .u_boot_list.cmd.showvar
                0x000bc424       0x1c common/libcommon.o
                0x000bc424                _u_boot_list_cmd_showvar
 .u_boot_list.cmd.sleep
                0x000bc440       0x1c common/libcommon.o
                0x000bc440                _u_boot_list_cmd_sleep
 .u_boot_list.cmd.source
                0x000bc45c       0x1c common/libcommon.o
                0x000bc45c                _u_boot_list_cmd_source
 .u_boot_list.cmd.sp
                0x000bc478       0x1c board/mv_ebu/common/libmv_ebu.o
                0x000bc478                _u_boot_list_cmd_sp
 .u_boot_list.cmd.sspi
                0x000bc494       0x1c common/libcommon.o
                0x000bc494                _u_boot_list_cmd_sspi
 .u_boot_list.cmd.stage_boot
                0x000bc4b0       0x1c board/mv_ebu/a38x/liba38x.o
                0x000bc4b0                _u_boot_list_cmd_stage_boot
 .u_boot_list.cmd.sys_restore
                0x000bc4cc       0x1c board/mv_ebu/common/libmv_ebu.o
                0x000bc4cc                _u_boot_list_cmd_sys_restore
 .u_boot_list.cmd.sysboot
                0x000bc4e8       0x1c common/libcommon.o
                0x000bc4e8                _u_boot_list_cmd_sysboot
 .u_boot_list.cmd.temp
                0x000bc504       0x1c board/mv_ebu/common/libmv_ebu.o
                0x000bc504                _u_boot_list_cmd_temp
 .u_boot_list.cmd.tempCmd0
                0x000bc520       0x1c board/mv_ebu/common/libmv_ebu.o
                0x000bc520                _u_boot_list_cmd_tempCmd0
 .u_boot_list.cmd.tempCmd1
                0x000bc53c       0x1c board/mv_ebu/common/libmv_ebu.o
                0x000bc53c                _u_boot_list_cmd_tempCmd1
 .u_boot_list.cmd.tempCmd2
                0x000bc558       0x1c board/mv_ebu/common/libmv_ebu.o
                0x000bc558                _u_boot_list_cmd_tempCmd2
 .u_boot_list.cmd.tempCmd3
                0x000bc574       0x1c board/mv_ebu/common/libmv_ebu.o
                0x000bc574                _u_boot_list_cmd_tempCmd3
 .u_boot_list.cmd.test
                0x000bc590       0x1c common/libcommon.o
                0x000bc590                _u_boot_list_cmd_test
 .u_boot_list.cmd.tftpboot
                0x000bc5ac       0x1c common/libcommon.o
                0x000bc5ac                _u_boot_list_cmd_tftpboot
 .u_boot_list.cmd.training
                0x000bc5c8       0x1c board/mv_ebu/common/libmv_ebu.o
                0x000bc5c8                _u_boot_list_cmd_training
 .u_boot_list.cmd.true
                0x000bc5e4       0x1c common/libcommon.o
                0x000bc5e4                _u_boot_list_cmd_true
 .u_boot_list.cmd.ts_report
                0x000bc600       0x1c board/mv_ebu/common/libmv_ebu.o
                0x000bc600                _u_boot_list_cmd_ts_report
 .u_boot_list.cmd.ts_test
                0x000bc61c       0x1c board/mv_ebu/common/libmv_ebu.o
                0x000bc61c                _u_boot_list_cmd_ts_test
 .u_boot_list.cmd.ubi
                0x000bc638       0x1c common/libcommon.o
                0x000bc638                _u_boot_list_cmd_ubi
 .u_boot_list.cmd.ubifsload
                0x000bc654       0x1c common/libcommon.o
                0x000bc654                _u_boot_list_cmd_ubifsload
 .u_boot_list.cmd.ubifsls
                0x000bc670       0x1c common/libcommon.o
                0x000bc670                _u_boot_list_cmd_ubifsls
 .u_boot_list.cmd.ubifsmount
                0x000bc68c       0x1c common/libcommon.o
                0x000bc68c                _u_boot_list_cmd_ubifsmount
 .u_boot_list.cmd.ubifsumount
                0x000bc6a8       0x1c common/libcommon.o
                0x000bc6a8                _u_boot_list_cmd_ubifsumount
 .u_boot_list.cmd.usb
                0x000bc6c4       0x1c common/libcommon.o
                0x000bc6c4                _u_boot_list_cmd_usb
 .u_boot_list.cmd.usbboot
                0x000bc6e0       0x1c common/libcommon.o
                0x000bc6e0                _u_boot_list_cmd_usbboot
 .u_boot_list.cmd.version
                0x000bc6fc       0x1c common/libcommon.o
                0x000bc6fc                _u_boot_list_cmd_version
 .u_boot_list.cmd.whoAmI
                0x000bc718       0x1c board/mv_ebu/common/libmv_ebu.o
                0x000bc718                _u_boot_list_cmd_whoAmI
                0x000bc734                _u_boot_list_cmd__end = .
                0x000bc734                _u_boot_list_env_clbk__start = .
 *(SORT(.u_boot_list.env_clbk.*))
 .u_boot_list.env_clbk.baudrate
                0x000bc734        0x8 drivers/serial/libserial.o
                0x000bc734                _u_boot_list_env_clbk_baudrate
 .u_boot_list.env_clbk.bootfile
                0x000bc73c        0x8 net/libnet.o
                0x000bc73c                _u_boot_list_env_clbk_bootfile
 .u_boot_list.env_clbk.callbacks
                0x000bc744        0x8 common/libcommon.o
                0x000bc744                _u_boot_list_env_clbk_callbacks
 .u_boot_list.env_clbk.console
                0x000bc74c        0x8 common/libcommon.o
                0x000bc74c                _u_boot_list_env_clbk_console
 .u_boot_list.env_clbk.flags
                0x000bc754        0x8 common/libcommon.o
                0x000bc754                _u_boot_list_env_clbk_flags
 .u_boot_list.env_clbk.loadaddr
                0x000bc75c        0x8 common/libcommon.o
                0x000bc75c                _u_boot_list_env_clbk_loadaddr
                0x000bc764                _u_boot_list_env_clbk__end = .
 *(SORT(.u_boot_list.*))
                0x000bc764                _u_boot_list__end = .
                0x000bc764                . = ALIGN (0x4)
                0x000bc764                __image_copy_end = .

.rel.dyn        0x000bc764     0xf200
                0x000bc764                __rel_dyn_start = .
 *(.rel*)
 .rel.got       0x00000000        0x0 arch/arm/cpu/armv7/start.o
 .rel.plt       0x00000000        0x0 arch/arm/cpu/armv7/start.o
 .rel.iplt      0x00000000        0x0 arch/arm/cpu/armv7/start.o
 .rel.text      0x000bc764     0xc908 arch/arm/cpu/armv7/start.o
 .rel.data      0x000c906c      0xf50 arch/arm/cpu/armv7/start.o
 .rel.rodata    0x000c9fbc      0xa58 arch/arm/cpu/armv7/start.o
 .rel.u_boot_list.cmd.ts_test
                0x000caa14       0x20 arch/arm/cpu/armv7/start.o
 .rel.u_boot_list.cmd.ts_report
                0x000caa34       0x20 arch/arm/cpu/armv7/start.o
 .rel.u_boot_list.cmd.rcvr
                0x000caa54       0x20 arch/arm/cpu/armv7/start.o
 .rel.u_boot_list.cmd.training
                0x000caa74       0x20 arch/arm/cpu/armv7/start.o
 .rel.u_boot_list.cmd.ir
                0x000caa94       0x20 arch/arm/cpu/armv7/start.o
 .rel.u_boot_list.cmd.phyWrite
                0x000caab4       0x20 arch/arm/cpu/armv7/start.o
 .rel.u_boot_list.cmd.Creset
                0x000caad4       0x20 arch/arm/cpu/armv7/start.o
 .rel.u_boot_list.cmd.whoAmI
                0x000caaf4       0x20 arch/arm/cpu/armv7/start.o
 .rel.u_boot_list.cmd.map
                0x000cab14       0x20 arch/arm/cpu/armv7/start.o
 .rel.u_boot_list.cmd.temp
                0x000cab34       0x20 arch/arm/cpu/armv7/start.o
 .rel.u_boot_list.cmd.sg
                0x000cab54       0x20 arch/arm/cpu/armv7/start.o
 .rel.u_boot_list.cmd.dma
                0x000cab74       0x20 arch/arm/cpu/armv7/start.o
 .rel.u_boot_list.cmd.tempCmd0
                0x000cab94       0x20 arch/arm/cpu/armv7/start.o
 .rel.u_boot_list.cmd.tempCmd1
                0x000cabb4       0x20 arch/arm/cpu/armv7/start.o
 .rel.u_boot_list.cmd.tempCmd2
                0x000cabd4       0x20 arch/arm/cpu/armv7/start.o
 .rel.u_boot_list.cmd.tempCmd3
                0x000cabf4       0x20 arch/arm/cpu/armv7/start.o
 .rel.u_boot_list.cmd.phyRead
                0x000cac14       0x20 arch/arm/cpu/armv7/start.o
 .rel.u_boot_list.cmd.bubt
                0x000cac34       0x20 arch/arm/cpu/armv7/start.o
 .rel.u_boot_list.cmd.resetenv
                0x000cac54       0x20 arch/arm/cpu/armv7/start.o
 .rel.u_boot_list.cmd.ddrPhyRead
                0x000cac74       0x20 arch/arm/cpu/armv7/start.o
 .rel.u_boot_list.cmd.ddrPhyWrite
                0x000cac94       0x20 arch/arm/cpu/armv7/start.o
 .rel.u_boot_list.cmd.pciePhyWrite
                0x000cacb4       0x20 arch/arm/cpu/armv7/start.o
 .rel.u_boot_list.cmd.pciePhyRead
                0x000cacd4       0x20 arch/arm/cpu/armv7/start.o
 .rel.u_boot_list.cmd.me
                0x000cacf4       0x20 arch/arm/cpu/armv7/start.o
 .rel.u_boot_list.cmd.se
                0x000cad14       0x20 arch/arm/cpu/armv7/start.o
 .rel.u_boot_list.cmd.sp
                0x000cad34       0x20 arch/arm/cpu/armv7/start.o
 .rel.u_boot_list.cmd.mp
                0x000cad54       0x20 arch/arm/cpu/armv7/start.o
 .rel.u_boot_list.cmd.diskboot
                0x000cad74       0x20 arch/arm/cpu/armv7/start.o
 .rel.u_boot_list.cmd.ide
                0x000cad94       0x20 arch/arm/cpu/armv7/start.o
 .rel.u_boot_list.cmd.sys_restore
                0x000cadb4       0x20 arch/arm/cpu/armv7/start.o
 .rel.u_boot_list.cmd.active_units
                0x000cadd4       0x20 arch/arm/cpu/armv7/start.o
 .rel.u_boot_list.cmd.bdinfo
                0x000cadf4       0x20 arch/arm/cpu/armv7/start.o
 .rel.u_boot_list.cmd.reset
                0x000cae14       0x20 arch/arm/cpu/armv7/start.o
 .rel.u_boot_list.cmd.go
                0x000cae34       0x20 arch/arm/cpu/armv7/start.o
 .rel.u_boot_list.cmd.bootm
                0x000cae54       0x20 arch/arm/cpu/armv7/start.o
 .rel.u_boot_list.cmd.bootd
                0x000cae74       0x20 arch/arm/cpu/armv7/start.o
 .rel.u_boot_list.cmd.bootz
                0x000cae94       0x20 arch/arm/cpu/armv7/start.o
 .rel.u_boot_list.cmd.iminfo
                0x000caeb4       0x20 arch/arm/cpu/armv7/start.o
 .rel.u_boot_list.cmd.boot
                0x000caed4       0x20 arch/arm/cpu/armv7/start.o
 .rel.u_boot_list.cmd.coninfo
                0x000caef4       0x20 arch/arm/cpu/armv7/start.o
 .rel.u_boot_list.cmd.date
                0x000caf14       0x20 arch/arm/cpu/armv7/start.o
 .rel.u_boot_list.cmd.echo
                0x000caf34       0x20 arch/arm/cpu/armv7/start.o
 .rel.u_boot_list.cmd.eeprom
                0x000caf54       0x20 arch/arm/cpu/armv7/start.o
 .rel.u_boot_list.cmd.bootelf
                0x000caf74       0x20 arch/arm/cpu/armv7/start.o
 .rel.u_boot_list.cmd.bootvx
                0x000caf94       0x20 arch/arm/cpu/armv7/start.o
 .rel.u_boot_list.cmd.exit
                0x000cafb4       0x20 arch/arm/cpu/armv7/start.o
 .rel.u_boot_list.cmd.ext2load
                0x000cafd4       0x20 arch/arm/cpu/armv7/start.o
 .rel.u_boot_list.cmd.ext2ls
                0x000caff4       0x20 arch/arm/cpu/armv7/start.o
 .rel.u_boot_list.cmd.ext4ls
                0x000cb014       0x20 arch/arm/cpu/armv7/start.o
 .rel.u_boot_list.cmd.ext4load
                0x000cb034       0x20 arch/arm/cpu/armv7/start.o
 .rel.u_boot_list.cmd.ext4write
                0x000cb054       0x20 arch/arm/cpu/armv7/start.o
 .rel.u_boot_list.cmd.fatls
                0x000cb074       0x20 arch/arm/cpu/armv7/start.o
 .rel.u_boot_list.cmd.fatload
                0x000cb094       0x20 arch/arm/cpu/armv7/start.o
 .rel.u_boot_list.cmd.fatinfo
                0x000cb0b4       0x20 arch/arm/cpu/armv7/start.o
 .rel.u_boot_list.cmd.fdt
                0x000cb0d4       0x20 arch/arm/cpu/armv7/start.o
 .rel.u_boot_list.cmd.flinfo
                0x000cb0f4       0x20 arch/arm/cpu/armv7/start.o
 .rel.u_boot_list.cmd.erase
                0x000cb114       0x20 arch/arm/cpu/armv7/start.o
 .rel.u_boot_list.cmd.protect
                0x000cb134       0x20 arch/arm/cpu/armv7/start.o
 .rel.u_boot_list.cmd.question_mark
                0x000cb154       0x20 arch/arm/cpu/armv7/start.o
 .rel.u_boot_list.cmd.help
                0x000cb174       0x20 arch/arm/cpu/armv7/start.o
 .rel.u_boot_list.cmd.i2c
                0x000cb194       0x20 arch/arm/cpu/armv7/start.o
 .rel.u_boot_list.cmd.itest
                0x000cb1b4       0x20 arch/arm/cpu/armv7/start.o
 .rel.u_boot_list.cmd.fsload
                0x000cb1d4       0x20 arch/arm/cpu/armv7/start.o
 .rel.u_boot_list.cmd.fsinfo
                0x000cb1f4       0x20 arch/arm/cpu/armv7/start.o
 .rel.u_boot_list.cmd.ls
                0x000cb214       0x20 arch/arm/cpu/armv7/start.o
 .rel.u_boot_list.cmd.loads
                0x000cb234       0x20 arch/arm/cpu/armv7/start.o
 .rel.u_boot_list.cmd.loadb
                0x000cb254       0x20 arch/arm/cpu/armv7/start.o
 .rel.u_boot_list.cmd.loadx
                0x000cb274       0x20 arch/arm/cpu/armv7/start.o
 .rel.u_boot_list.cmd.loady
                0x000cb294       0x20 arch/arm/cpu/armv7/start.o
 .rel.u_boot_list.cmd.mtest
                0x000cb2b4       0x20 arch/arm/cpu/armv7/start.o
 .rel.u_boot_list.cmd.cp
                0x000cb2d4       0x20 arch/arm/cpu/armv7/start.o
 .rel.u_boot_list.cmd.loop
                0x000cb2f4       0x20 arch/arm/cpu/armv7/start.o
 .rel.u_boot_list.cmd.crc32
                0x000cb314       0x20 arch/arm/cpu/armv7/start.o
 .rel.u_boot_list.cmd.cmp
                0x000cb334       0x20 arch/arm/cpu/armv7/start.o
 .rel.u_boot_list.cmd.md
                0x000cb354       0x20 arch/arm/cpu/armv7/start.o
 .rel.u_boot_list.cmd.mw
                0x000cb374       0x20 arch/arm/cpu/armv7/start.o
 .rel.u_boot_list.cmd.mm
                0x000cb394       0x20 arch/arm/cpu/armv7/start.o
 .rel.u_boot_list.cmd.base
                0x000cb3b4       0x20 arch/arm/cpu/armv7/start.o
 .rel.u_boot_list.cmd.nm
                0x000cb3d4       0x20 arch/arm/cpu/armv7/start.o
 .rel.u_boot_list.cmd.sleep
                0x000cb3f4       0x20 arch/arm/cpu/armv7/start.o
 .rel.u_boot_list.cmd.mmcinfo
                0x000cb414       0x20 arch/arm/cpu/armv7/start.o
 .rel.u_boot_list.cmd.mmc
                0x000cb434       0x20 arch/arm/cpu/armv7/start.o
 .rel.u_boot_list.cmd.chpart
                0x000cb454       0x20 arch/arm/cpu/armv7/start.o
 .rel.u_boot_list.cmd.mtdparts
                0x000cb474       0x20 arch/arm/cpu/armv7/start.o
 .rel.u_boot_list.cmd.ping
                0x000cb494       0x20 arch/arm/cpu/armv7/start.o
 .rel.u_boot_list.cmd.nfs
                0x000cb4b4       0x20 arch/arm/cpu/armv7/start.o
 .rel.u_boot_list.cmd.bootp
                0x000cb4d4       0x20 arch/arm/cpu/armv7/start.o
 .rel.u_boot_list.cmd.tftpboot
                0x000cb4f4       0x20 arch/arm/cpu/armv7/start.o
 .rel.u_boot_list.cmd.dhcp
                0x000cb514       0x20 arch/arm/cpu/armv7/start.o
 .rel.u_boot_list.cmd.printenv
                0x000cb534       0x28 arch/arm/cpu/armv7/start.o
 .rel.u_boot_list.cmd.editenv
                0x000cb55c       0x28 arch/arm/cpu/armv7/start.o
 .rel.u_boot_list.cmd.env
                0x000cb584       0x20 arch/arm/cpu/armv7/start.o
 .rel.u_boot_list.cmd.saveenv
                0x000cb5a4       0x20 arch/arm/cpu/armv7/start.o
 .rel.u_boot_list.cmd.setenv
                0x000cb5c4       0x28 arch/arm/cpu/armv7/start.o
 .rel.u_boot_list.cmd.run
                0x000cb5ec       0x28 arch/arm/cpu/armv7/start.o
 .rel.u_boot_list.cmd.pci
                0x000cb614       0x20 arch/arm/cpu/armv7/start.o
 .rel.u_boot_list.cmd.pxe
                0x000cb634       0x20 arch/arm/cpu/armv7/start.o
 .rel.u_boot_list.cmd.sysboot
                0x000cb654       0x20 arch/arm/cpu/armv7/start.o
 .rel.u_boot_list.cmd.scsiboot
                0x000cb674       0x20 arch/arm/cpu/armv7/start.o
 .rel.u_boot_list.cmd.scsi
                0x000cb694       0x20 arch/arm/cpu/armv7/start.o
 .rel.u_boot_list.cmd.sf
                0x000cb6b4       0x20 arch/arm/cpu/armv7/start.o
 .rel.u_boot_list.cmd.source
                0x000cb6d4       0x20 arch/arm/cpu/armv7/start.o
 .rel.u_boot_list.cmd.sspi
                0x000cb6f4       0x20 arch/arm/cpu/armv7/start.o
 .rel.u_boot_list.cmd.test
                0x000cb714       0x20 arch/arm/cpu/armv7/start.o
 .rel.u_boot_list.cmd.false
                0x000cb734       0x18 arch/arm/cpu/armv7/start.o
 .rel.u_boot_list.cmd.true
                0x000cb74c       0x18 arch/arm/cpu/armv7/start.o
 .rel.u_boot_list.cmd.ubi
                0x000cb764       0x20 arch/arm/cpu/armv7/start.o
 .rel.u_boot_list.cmd.ubifsload
                0x000cb784       0x20 arch/arm/cpu/armv7/start.o
 .rel.u_boot_list.cmd.ubifsls
                0x000cb7a4       0x20 arch/arm/cpu/armv7/start.o
 .rel.u_boot_list.cmd.ubifsumount
                0x000cb7c4       0x20 arch/arm/cpu/armv7/start.o
 .rel.u_boot_list.cmd.ubifsmount
                0x000cb7e4       0x20 arch/arm/cpu/armv7/start.o
 .rel.u_boot_list.cmd.usb
                0x000cb804       0x20 arch/arm/cpu/armv7/start.o
 .rel.u_boot_list.cmd.usbboot
                0x000cb824       0x20 arch/arm/cpu/armv7/start.o
 .rel.u_boot_list.cmd.version
                0x000cb844       0x20 arch/arm/cpu/armv7/start.o
 .rel.u_boot_list.cmd.imxtract
                0x000cb864       0x20 arch/arm/cpu/armv7/start.o
 .rel.u_boot_list.env_clbk.console
                0x000cb884       0x10 arch/arm/cpu/armv7/start.o
 .rel.u_boot_list.env_clbk.callbacks
                0x000cb894       0x10 arch/arm/cpu/armv7/start.o
 .rel.u_boot_list.env_clbk.flags
                0x000cb8a4       0x10 arch/arm/cpu/armv7/start.o
 .rel.u_boot_list.cmd.showvar
                0x000cb8b4       0x20 arch/arm/cpu/armv7/start.o
 .rel.u_boot_list.env_clbk.loadaddr
                0x000cb8d4       0x10 arch/arm/cpu/armv7/start.o
 .rel.u_boot_list.env_clbk.baudrate
                0x000cb8e4       0x10 arch/arm/cpu/armv7/start.o
 .rel.u_boot_list.env_clbk.bootfile
                0x000cb8f4       0x10 arch/arm/cpu/armv7/start.o
 .rel.u_boot_list.cmd.stage_boot
                0x000cb904       0x20 arch/arm/cpu/armv7/start.o
 .rel.u_boot_list.cmd.boot_menu
                0x000cb924       0x20 arch/arm/cpu/armv7/start.o
 .rel.u_boot_list.cmd.SatR
                0x000cb944       0x20 arch/arm/cpu/armv7/start.o
                0x000cb964                __rel_dyn_end = .

.dynsym         0x000cb964      0x110
                0x000cb964                __dynsym_start = .
 *(.dynsym)
 .dynsym        0x000cb964      0x110 arch/arm/cpu/armv7/start.o
                0x000cba74                _end = .
                0x000cc000                . = ALIGN (0x1000)

.mmutable
 *(.mmutable)

.bss            0x000bc764    0x5782c
                0x000bc764                __bss_start = .
 *(.bss*)
 .bss           0x000bc764        0x0 arch/arm/cpu/armv7/start.o
 .bss           0x000bc764       0x64 api/libapi.o
 .bss           0x000bc7c8        0x0 arch/arm/cpu/armv7/libarmv7.o
 .bss           0x000bc7c8        0xc arch/arm/cpu/armv7/mvca9/libmvca9.o
                0x000bc7d0                timer_init_done
 .bss           0x000bc7d4        0x8 arch/arm/lib/libarm.o
                0x000bc7d4                monitor_flash_len
 *fill*         0x000bc7dc       0x24 00
 .bss           0x000bc800     0x4424 board/mv_ebu/common/libmv_ebu.o
                0x000bc808                currSpiInfo
                0x000bc80c                paramPage
                0x000bc8c4                gIsUsb3
                0x000bc90c                dbAP88f68xxTdm880
                0x000bc90d                db88f68xxTdm880
                0x000bc910                flash
                0x000bc914                i2c_current_bus
                0x000bc91c                hc
                0x000bc920                scan_in_progress
                0x000bc924                pci_hose
                0x000be000                request_q
                0x000be100                response_q
                0x000be10c                sataAdapters
                0x000c0940                prd_table
                0x000c0c00                mvNetaHalData
                0x000c0c20                mvNetaPortCtrl
 *fill*         0x000c0c24       0x1c 00
 .bss           0x000c0c40    0x1abdc common/libcommon.o
                0x000c0c40                images
                0x000c0d74                working_fdt
                0x000c1208                current_mtd_dev
                0x000c1214                current_mtd_partnum
                0x000c27f8                mem_malloc_brk
                0x000c27fc                mem_malloc_start
                0x000c2800                mem_malloc_end
                0x000c2d7c                marvell_recursive_parse
                0x000c2d80                save_size
                0x000c2d84                save_addr
                0x000c7dfc                console_buffer
                0x000c823c                stdio_devices
                0x000c8260                usb_started
                0x000dae84                usb_second_reset_needed
 .bss           0x000db81c       0x29 disk/libdisk.o
 *fill*         0x000db845        0x3 00
 .bss           0x000db848       0xdc drivers/block/libblock.o
                0x000db848                ahci_targets
                0x000db90c                ahci_ent
 .bss           0x000db924        0x0 drivers/input/libinput.o
 .bss           0x000db924       0x24 drivers/mmc/libmmc.o
                0x000db944                aligned_buffer
 .bss           0x000db948      0x350 drivers/mtd/libmtd.o
                0x000db948                mtd_table
                0x000db9c8                mtd_partitions
                0x000db9d8                flash_info
 .bss           0x000dbc98        0x4 drivers/mtd/spi/libspi_flash.o
                0x000dbc98                countDot
 .bss           0x000dbc9c      0x9c0 drivers/mtd/ubi/libubi.o
                0x000dbc9c                ubi_devices
                0x000dbd20                ubi_class
 .bss           0x000dc65c     0x21d0 drivers/net/libnet.o
 .bss           0x000de82c       0x14 drivers/pci/libpci.o
 .bss           0x000de840        0x0 drivers/pcmcia/libpcmcia.o
 .bss           0x000de840        0x0 drivers/rtc/librtc.o
 .bss           0x000de840        0x8 drivers/serial/libserial.o
 .bss           0x000de848      0x1ac drivers/usb/eth/libusb_eth.o
 *fill*         0x000de9f4        0xc 00
 .bss           0x000dea00      0x500 drivers/usb/host/libusb_host.o
 .bss           0x000def00      0x3b8 fs/ext4/libext4fs.o
                0x000def00                ext_fs
                0x000def48                ext4fs_symlinknest
                0x000def50                ext4fs_root
                0x000def54                ext4fs_indir1_block
                0x000def58                ext4fs_indir1_size
                0x000def5c                ext4fs_indir2_block
                0x000def60                ext4fs_indir2_size
                0x000def64                ext4fs_indir3_block
                0x000def68                ext4fs_indir3_size
                0x000def6c                g_parent_inode
                0x000def70                ext4fs_file
                0x000def80                part_offset
                0x000def84                dirty_block_ptr
                0x000df114                journal_ptr
                0x000df2a4                gindex
                0x000df2a8                gd_index
                0x000df2ac                jrnl_blk_idx
 *fill*         0x000df2b8        0x8 00
 .bss           0x000df2c0    0x30060 fs/fat/libfat.o
                0x000df320                get_contents_vfatname_block
                0x000ef320                do_fat_read_at_block
                0x000ff320                get_dentfromdir_block
 .bss           0x0010f320        0x4 fs/jffs2/libjffs2.o
 .bss           0x0010f324       0x58 fs/libfs.o
 .bss           0x0010f37c      0x118 fs/ubifs/libubifs.o
                0x0010f37c                ubifs_compressors
                0x0010f488                ubifs_sb
                0x0010f48c                ubifs_infos
 .bss           0x0010f494        0x0 lib/libfdt/libfdt.o
 .bss           0x0010f494       0x1e lib/libgeneric.o
                0x0010f494                errno
                0x0010f498                ___strtok
 .bss           0x0010f4b2        0x0 lib/lzo/liblzo.o
 .bss           0x0010f4b2        0x0 lib/zlib/libz.o
 *fill*         0x0010f4b2        0x2 00
 .bss           0x0010f4b4     0x4764 net/libnet.o
                0x0010f4b4                NetArpWaitPacketMAC
                0x0010f4b8                NetArpWaitPacketIP
                0x0010f4c0                NetArpWaitTxPacketSize
                0x0010fae8                NetArpWaitTimerStart
                0x0010faec                NetArpWaitTry
                0x0010faf8                BootpID
                0x0010fb00                BootpTry
                0x001112dc                eth_current
                0x001112f4                net_state
                0x00111314                NetRestartWrap
                0x0011131c                NetRxPacket
                0x00111320                NetRxPacketLen
                0x00111324                push_packet
                0x00111328                NetOurIP
                0x0011132c                NetOurEther
                0x00111334                NetIPID
                0x00111338                NetTxPacket
                0x0011133c                NetEtherNullAddr
                0x00111342                BootFile
                0x001113c8                NetOurGatewayIP
                0x001113cc                NetOurSubnetMask
                0x001113d0                NetServerIP
                0x001131f4                NetRxPackets
                0x00113204                NetBootFileXferSize
                0x00113208                NetServerEther
                0x0011320e                NetBootFileSize
                0x00113210                NetOurRootPath
                0x00113250                NetOurHostName
                0x00113270                NetOurNISDomain
                0x00113290                NetOurDNSIP
                0x00113b44                NetPingIP
                0x00113b4c                peerTID
                0x00113b50                myTID
                0x00113b54                rcvr_state
                0x00113b58                packetNum
                0x00113b5c                imagePtr
 .bss           0x00113c18      0x124 board/mv_ebu/a38x/liba38x.o
                0x00113c18                yuk_enetaddr
                0x00113c1e                enviroment
                0x00113cfc                bm_item_list
 .bss           0x00113d3c        0x4 drivers/net/sk98lin/libsk98lin.o(uboot_drv.o)
                0x00113d3c                sk98_inited
 .bss           0x00113d40      0x208 drivers/net/sk98lin/libsk98lin.o(uboot_skb.o)
                0x00113d40                sk_table
                0x00113f40                skbAlloc
                0x00113f44                skbFree
 .bss           0x00113f48        0x1 drivers/net/sk98lin/libsk98lin.o(sky2.o)
 *fill*         0x00113f49        0x3 00
 .bss           0x00113f4c        0x8 drivers/net/sk98lin/libsk98lin.o(skge.o)
                0x00113f50                SkGeRootDev
 .bss           0x00113f54        0x0 drivers/net/sk98lin/libsk98lin.o(sky2le.o)
 .bss           0x00113f54        0x0 drivers/net/sk98lin/libsk98lin.o(skdim.o)
 .bss           0x00113f54       0x3c drivers/net/sk98lin/libsk98lin.o(skaddr.o)
 .bss           0x00113f90        0x0 drivers/net/sk98lin/libsk98lin.o(skgeinit.o)
 .bss           0x00113f90        0x0 drivers/net/sk98lin/libsk98lin.o(skgesirq.o)
 .bss           0x00113f90        0x0 drivers/net/sk98lin/libsk98lin.o(sktwsi.o)
 .bss           0x00113f90        0x0 drivers/net/sk98lin/libsk98lin.o(sklm80.o)
 .bss           0x00113f90        0x0 drivers/net/sk98lin/libsk98lin.o(skqueue.o)
 .bss           0x00113f90        0x0 drivers/net/sk98lin/libsk98lin.o(skrlmt.o)
 .bss           0x00113f90        0x0 drivers/net/sk98lin/libsk98lin.o(sktimer.o)
 .bss           0x00113f90        0x0 drivers/net/sk98lin/libsk98lin.o(skxmac2.o)
 .bss           0x00113f90        0x0 drivers/net/sk98lin/libsk98lin.o(skgehwt.o)
 .bss           0x00113f90        0x0 /home/kfyao/Marvell/A385_uboot_T3/u-boot-2013.01/arch/arm/lib/eabi_compat.o
 .bss           0x00113f90        0x0 /opt/Marvell_toolchain_2014T2/le/armv7-marvell-linux-gnueabi-softfp_i686_64K_Dev_20131002/bin/../lib/gcc/arm-marvell-linux-gnueabi/4.6.4/libgcc.a(_udivsi3.o)
 .bss           0x00113f90        0x0 /opt/Marvell_toolchain_2014T2/le/armv7-marvell-linux-gnueabi-softfp_i686_64K_Dev_20131002/bin/../lib/gcc/arm-marvell-linux-gnueabi/4.6.4/libgcc.a(_divsi3.o)
 .bss           0x00113f90        0x0 /opt/Marvell_toolchain_2014T2/le/armv7-marvell-linux-gnueabi-softfp_i686_64K_Dev_20131002/bin/../lib/gcc/arm-marvell-linux-gnueabi/4.6.4/libgcc.a(_lshrdi3.o)
 .bss           0x00113f90        0x0 /opt/Marvell_toolchain_2014T2/le/armv7-marvell-linux-gnueabi-softfp_i686_64K_Dev_20131002/bin/../lib/gcc/arm-marvell-linux-gnueabi/4.6.4/libgcc.a(_ashldi3.o)
 .bss           0x00113f90        0x0 /opt/Marvell_toolchain_2014T2/le/armv7-marvell-linux-gnueabi-softfp_i686_64K_Dev_20131002/bin/../lib/gcc/arm-marvell-linux-gnueabi/4.6.4/libgcc.a(_aeabi_uldivmod.o)
 .bss           0x00113f90        0x0 /opt/Marvell_toolchain_2014T2/le/armv7-marvell-linux-gnueabi-softfp_i686_64K_Dev_20131002/bin/../lib/gcc/arm-marvell-linux-gnueabi/4.6.4/libgcc.a(_dvmd_lnx.o)
 .bss           0x00113f90        0x0 /opt/Marvell_toolchain_2014T2/le/armv7-marvell-linux-gnueabi-softfp_i686_64K_Dev_20131002/bin/../lib/gcc/arm-marvell-linux-gnueabi/4.6.4/libgcc.a(bpabi.o)
 .bss           0x00113f90        0x0 /opt/Marvell_toolchain_2014T2/le/armv7-marvell-linux-gnueabi-softfp_i686_64K_Dev_20131002/bin/../lib/gcc/arm-marvell-linux-gnueabi/4.6.4/libgcc.a(_divdi3.o)
 .bss           0x00113f90        0x0 /opt/Marvell_toolchain_2014T2/le/armv7-marvell-linux-gnueabi-softfp_i686_64K_Dev_20131002/bin/../lib/gcc/arm-marvell-linux-gnueabi/4.6.4/libgcc.a(_udivdi3.o)
                0x00113f90                . = ALIGN (0x4)
                0x00113f90                __bss_end__ = .

.dynbss         0x000cc000        0x0 load address 0x00113f90
 .dynbss        0x00000000        0x0 arch/arm/cpu/armv7/start.o

/DISCARD/
 *(.dynstr*)
 *(.dynamic*)
 *(.plt*)
 *(.interp*)
 *(.gnu*)
Address of section .text set to 0x0
LOAD arch/arm/cpu/armv7/start.o
START GROUP
LOAD api/libapi.o
LOAD arch/arm/cpu/armv7/libarmv7.o
LOAD arch/arm/cpu/armv7/mvca9/libmvca9.o
LOAD arch/arm/lib/libarm.o
LOAD board/mv_ebu/common/libmv_ebu.o
LOAD common/libcommon.o
LOAD disk/libdisk.o
LOAD drivers/bios_emulator/libatibiosemu.o
LOAD drivers/block/libblock.o
LOAD drivers/dfu/libdfu.o
LOAD drivers/dma/libdma.o
LOAD drivers/fpga/libfpga.o
LOAD drivers/gpio/libgpio.o
LOAD drivers/hwmon/libhwmon.o
LOAD drivers/i2c/libi2c.o
LOAD drivers/input/libinput.o
LOAD drivers/misc/libmisc.o
LOAD drivers/mmc/libmmc.o
LOAD drivers/mtd/libmtd.o
LOAD drivers/mtd/nand/libnand.o
LOAD drivers/mtd/onenand/libonenand.o
LOAD drivers/mtd/spi/libspi_flash.o
LOAD drivers/mtd/ubi/libubi.o
LOAD drivers/net/libnet.o
LOAD drivers/net/phy/libphy.o
LOAD drivers/net/sk98lin/libsk98lin.o
LOAD drivers/pci/libpci.o
LOAD drivers/pcmcia/libpcmcia.o
LOAD drivers/power/battery/libbattery.o
LOAD drivers/power/fuel_gauge/libfuel_gauge.o
LOAD drivers/power/libpower.o
LOAD drivers/power/pmic/libpmic.o
LOAD drivers/rtc/librtc.o
LOAD drivers/serial/libserial.o
LOAD drivers/sound/libsound.o
LOAD drivers/spi/libspi.o
LOAD drivers/twserial/libtws.o
LOAD drivers/usb/eth/libusb_eth.o
LOAD drivers/usb/gadget/libusb_gadget.o
LOAD drivers/usb/host/libusb_host.o
LOAD drivers/usb/musb-new/libusb_musb-new.o
LOAD drivers/usb/musb/libusb_musb.o
LOAD drivers/usb/phy/libusb_phy.o
LOAD drivers/usb/ulpi/libusb_ulpi.o
LOAD drivers/video/libvideo.o
LOAD drivers/watchdog/libwatchdog.o
LOAD fs/cbfs/libcbfs.o
LOAD fs/cramfs/libcramfs.o
LOAD fs/ext4/libext4fs.o
LOAD fs/fat/libfat.o
LOAD fs/fdos/libfdos.o
LOAD fs/jffs2/libjffs2.o
LOAD fs/libfs.o
LOAD fs/reiserfs/libreiserfs.o
LOAD fs/ubifs/libubifs.o
LOAD fs/yaffs2/libyaffs2.o
LOAD fs/zfs/libzfs.o
LOAD lib/libfdt/libfdt.o
LOAD lib/libgeneric.o
LOAD lib/lzma/liblzma.o
LOAD lib/lzo/liblzo.o
LOAD lib/zlib/libz.o
LOAD net/libnet.o
LOAD post/libpost.o
LOAD test/libtest.o
LOAD board/mv_ebu/a38x/liba38x.o
END GROUP
LOAD /home/kfyao/Marvell/A385_uboot_T3/u-boot-2013.01/arch/arm/lib/eabi_compat.o
LOAD /opt/Marvell_toolchain_2014T2/le/armv7-marvell-linux-gnueabi-softfp_i686_64K_Dev_20131002/bin/../lib/gcc/arm-marvell-linux-gnueabi/4.6.4/libgcc.a
OUTPUT(u-boot elf32-littlearm)

.ARM.attributes
                0x00000000       0x35
 .ARM.attributes
                0x00000000       0x21 arch/arm/cpu/armv7/start.o
 .ARM.attributes
                0x00000021       0x31 api/libapi.o
 .ARM.attributes
                0x00000052       0x31 arch/arm/cpu/armv7/libarmv7.o
 .ARM.attributes
                0x00000083       0x31 arch/arm/cpu/armv7/mvca9/libmvca9.o
 .ARM.attributes
                0x000000b4       0x2f arch/arm/lib/libarm.o
 .ARM.attributes
                0x000000e3       0x31 board/mv_ebu/common/libmv_ebu.o
 .ARM.attributes
                0x00000114       0x31 common/libcommon.o
 .ARM.attributes
                0x00000145       0x31 disk/libdisk.o
 .ARM.attributes
                0x00000176       0x31 drivers/block/libblock.o
 .ARM.attributes
                0x000001a7       0x31 drivers/input/libinput.o
 .ARM.attributes
                0x000001d8       0x31 drivers/mmc/libmmc.o
 .ARM.attributes
                0x00000209       0x31 drivers/mtd/libmtd.o
 .ARM.attributes
                0x0000023a       0x31 drivers/mtd/spi/libspi_flash.o
 .ARM.attributes
                0x0000026b       0x31 drivers/mtd/ubi/libubi.o
 .ARM.attributes
                0x0000029c       0x31 drivers/net/libnet.o
 .ARM.attributes
                0x000002cd       0x31 drivers/pci/libpci.o
 .ARM.attributes
                0x000002fe       0x31 drivers/pcmcia/libpcmcia.o
 .ARM.attributes
                0x0000032f       0x31 drivers/rtc/librtc.o
 .ARM.attributes
                0x00000360       0x31 drivers/serial/libserial.o
 .ARM.attributes
                0x00000391       0x31 drivers/usb/eth/libusb_eth.o
 .ARM.attributes
                0x000003c2       0x31 drivers/usb/host/libusb_host.o
 .ARM.attributes
                0x000003f3       0x31 fs/ext4/libext4fs.o
 .ARM.attributes
                0x00000424       0x31 fs/fat/libfat.o
 .ARM.attributes
                0x00000455       0x31 fs/jffs2/libjffs2.o
 .ARM.attributes
                0x00000486       0x31 fs/libfs.o
 .ARM.attributes
                0x000004b7       0x31 fs/ubifs/libubifs.o
 .ARM.attributes
                0x000004e8       0x31 lib/libfdt/libfdt.o
 .ARM.attributes
                0x00000519       0x31 lib/libgeneric.o
 .ARM.attributes
                0x0000054a       0x31 lib/lzo/liblzo.o
 .ARM.attributes
                0x0000057b       0x31 lib/zlib/libz.o
 .ARM.attributes
                0x000005ac       0x31 net/libnet.o
 .ARM.attributes
                0x000005dd       0x31 board/mv_ebu/a38x/liba38x.o
 .ARM.attributes
                0x0000060e       0x31 drivers/net/sk98lin/libsk98lin.o(uboot_drv.o)
 .ARM.attributes
                0x0000063f       0x31 drivers/net/sk98lin/libsk98lin.o(uboot_skb.o)
 .ARM.attributes
                0x00000670       0x31 drivers/net/sk98lin/libsk98lin.o(sky2.o)
 .ARM.attributes
                0x000006a1       0x31 drivers/net/sk98lin/libsk98lin.o(skge.o)
 .ARM.attributes
                0x000006d2       0x31 drivers/net/sk98lin/libsk98lin.o(sky2le.o)
 .ARM.attributes
                0x00000703       0x31 drivers/net/sk98lin/libsk98lin.o(skdim.o)
 .ARM.attributes
                0x00000734       0x31 drivers/net/sk98lin/libsk98lin.o(skaddr.o)
 .ARM.attributes
                0x00000765       0x31 drivers/net/sk98lin/libsk98lin.o(skgeinit.o)
 .ARM.attributes
                0x00000796       0x31 drivers/net/sk98lin/libsk98lin.o(skgesirq.o)
 .ARM.attributes
                0x000007c7       0x31 drivers/net/sk98lin/libsk98lin.o(sktwsi.o)
 .ARM.attributes
                0x000007f8       0x31 drivers/net/sk98lin/libsk98lin.o(sklm80.o)
 .ARM.attributes
                0x00000829       0x31 drivers/net/sk98lin/libsk98lin.o(skqueue.o)
 .ARM.attributes
                0x0000085a       0x31 drivers/net/sk98lin/libsk98lin.o(skrlmt.o)
 .ARM.attributes
                0x0000088b       0x31 drivers/net/sk98lin/libsk98lin.o(sktimer.o)
 .ARM.attributes
                0x000008bc       0x31 drivers/net/sk98lin/libsk98lin.o(skxmac2.o)
 .ARM.attributes
                0x000008ed       0x31 drivers/net/sk98lin/libsk98lin.o(skgehwt.o)
 .ARM.attributes
                0x0000091e       0x31 /home/kfyao/Marvell/A385_uboot_T3/u-boot-2013.01/arch/arm/lib/eabi_compat.o
 .ARM.attributes
                0x0000094f       0x2d /opt/Marvell_toolchain_2014T2/le/armv7-marvell-linux-gnueabi-softfp_i686_64K_Dev_20131002/bin/../lib/gcc/arm-marvell-linux-gnueabi/4.6.4/libgcc.a(_udivsi3.o)
 .ARM.attributes
                0x0000097c       0x2d /opt/Marvell_toolchain_2014T2/le/armv7-marvell-linux-gnueabi-softfp_i686_64K_Dev_20131002/bin/../lib/gcc/arm-marvell-linux-gnueabi/4.6.4/libgcc.a(_divsi3.o)
 .ARM.attributes
                0x000009a9       0x2d /opt/Marvell_toolchain_2014T2/le/armv7-marvell-linux-gnueabi-softfp_i686_64K_Dev_20131002/bin/../lib/gcc/arm-marvell-linux-gnueabi/4.6.4/libgcc.a(_lshrdi3.o)
 .ARM.attributes
                0x000009d6       0x2d /opt/Marvell_toolchain_2014T2/le/armv7-marvell-linux-gnueabi-softfp_i686_64K_Dev_20131002/bin/../lib/gcc/arm-marvell-linux-gnueabi/4.6.4/libgcc.a(_ashldi3.o)
 .ARM.attributes
                0x00000a03       0x2d /opt/Marvell_toolchain_2014T2/le/armv7-marvell-linux-gnueabi-softfp_i686_64K_Dev_20131002/bin/../lib/gcc/arm-marvell-linux-gnueabi/4.6.4/libgcc.a(_aeabi_uldivmod.o)
 .ARM.attributes
                0x00000a30       0x2d /opt/Marvell_toolchain_2014T2/le/armv7-marvell-linux-gnueabi-softfp_i686_64K_Dev_20131002/bin/../lib/gcc/arm-marvell-linux-gnueabi/4.6.4/libgcc.a(_dvmd_lnx.o)
 .ARM.attributes
                0x00000a5d       0x3f /opt/Marvell_toolchain_2014T2/le/armv7-marvell-linux-gnueabi-softfp_i686_64K_Dev_20131002/bin/../lib/gcc/arm-marvell-linux-gnueabi/4.6.4/libgcc.a(bpabi.o)
 .ARM.attributes
                0x00000a9c       0x3f /opt/Marvell_toolchain_2014T2/le/armv7-marvell-linux-gnueabi-softfp_i686_64K_Dev_20131002/bin/../lib/gcc/arm-marvell-linux-gnueabi/4.6.4/libgcc.a(_divdi3.o)
 .ARM.attributes
                0x00000adb       0x3f /opt/Marvell_toolchain_2014T2/le/armv7-marvell-linux-gnueabi-softfp_i686_64K_Dev_20131002/bin/../lib/gcc/arm-marvell-linux-gnueabi/4.6.4/libgcc.a(_udivdi3.o)

.comment        0x00000000       0x61
 .comment       0x00000000       0x61 api/libapi.o
                                0x1ea (size before relaxing)
 .comment       0x00000000      0x126 arch/arm/cpu/armv7/libarmv7.o
 .comment       0x00000000       0x62 arch/arm/cpu/armv7/mvca9/libmvca9.o
 .comment       0x00000000      0x24c arch/arm/lib/libarm.o
 .comment       0x00000000     0x1d7a board/mv_ebu/common/libmv_ebu.o
 .comment       0x00000000     0x181e common/libcommon.o
 .comment       0x00000000      0x188 disk/libdisk.o
 .comment       0x00000000       0xc4 drivers/block/libblock.o
 .comment       0x00000000       0x62 drivers/input/libinput.o
 .comment       0x00000000      0x188 drivers/mmc/libmmc.o
 .comment       0x00000000      0x126 drivers/mtd/libmtd.o
 .comment       0x00000000      0x188 drivers/mtd/spi/libspi_flash.o
 .comment       0x00000000      0x498 drivers/mtd/ubi/libubi.o
 .comment       0x00000000       0xc4 drivers/net/libnet.o
 .comment       0x00000000      0x126 drivers/pci/libpci.o
 .comment       0x00000000       0xc4 drivers/pcmcia/libpcmcia.o
 .comment       0x00000000       0x62 drivers/rtc/librtc.o
 .comment       0x00000000       0x62 drivers/serial/libserial.o
 .comment       0x00000000       0xc4 drivers/usb/eth/libusb_eth.o
 .comment       0x00000000      0x188 drivers/usb/host/libusb_host.o
 .comment       0x00000000      0x1ea fs/ext4/libext4fs.o
 .comment       0x00000000       0xc4 fs/fat/libfat.o
 .comment       0x00000000      0x1ea fs/jffs2/libjffs2.o
 .comment       0x00000000       0x62 fs/libfs.o
 .comment       0x00000000      0x6e4 fs/ubifs/libubifs.o
 .comment       0x00000000      0x2ae lib/libfdt/libfdt.o
 .comment       0x00000000      0x7a8 lib/libgeneric.o
 .comment       0x00000000       0x62 lib/lzo/liblzo.o
 .comment       0x00000000       0x62 lib/zlib/libz.o
 .comment       0x00000000      0x310 net/libnet.o
 .comment       0x00000000      0x188 board/mv_ebu/a38x/liba38x.o
 .comment       0x00000000       0x62 drivers/net/sk98lin/libsk98lin.o(uboot_drv.o)
 .comment       0x00000000       0x62 drivers/net/sk98lin/libsk98lin.o(uboot_skb.o)
 .comment       0x00000000       0x62 drivers/net/sk98lin/libsk98lin.o(sky2.o)
 .comment       0x00000000       0x62 drivers/net/sk98lin/libsk98lin.o(skge.o)
 .comment       0x00000000       0x62 drivers/net/sk98lin/libsk98lin.o(sky2le.o)
 .comment       0x00000000       0x62 drivers/net/sk98lin/libsk98lin.o(skdim.o)
 .comment       0x00000000       0x62 drivers/net/sk98lin/libsk98lin.o(skaddr.o)
 .comment       0x00000000       0x62 drivers/net/sk98lin/libsk98lin.o(skgeinit.o)
 .comment       0x00000000       0x62 drivers/net/sk98lin/libsk98lin.o(skgesirq.o)
 .comment       0x00000000       0x62 drivers/net/sk98lin/libsk98lin.o(sktwsi.o)
 .comment       0x00000000       0x62 drivers/net/sk98lin/libsk98lin.o(sklm80.o)
 .comment       0x00000000       0x62 drivers/net/sk98lin/libsk98lin.o(skqueue.o)
 .comment       0x00000000       0x62 drivers/net/sk98lin/libsk98lin.o(skrlmt.o)
 .comment       0x00000000       0x62 drivers/net/sk98lin/libsk98lin.o(sktimer.o)
 .comment       0x00000000       0x62 drivers/net/sk98lin/libsk98lin.o(skxmac2.o)
 .comment       0x00000000       0x62 drivers/net/sk98lin/libsk98lin.o(skgehwt.o)
 .comment       0x00000000       0x62 /home/kfyao/Marvell/A385_uboot_T3/u-boot-2013.01/arch/arm/lib/eabi_compat.o

.note.GNU-stack
                0x00000000        0x0
 .note.GNU-stack
                0x00000000        0x0 api/libapi.o
 .note.GNU-stack
                0x00000000        0x0 arch/arm/cpu/armv7/libarmv7.o
 .note.GNU-stack
                0x00000000        0x0 arch/arm/cpu/armv7/mvca9/libmvca9.o
 .note.GNU-stack
                0x00000000        0x0 arch/arm/lib/libarm.o
 .note.GNU-stack
                0x00000000        0x0 board/mv_ebu/common/libmv_ebu.o
 .note.GNU-stack
                0x00000000        0x0 common/libcommon.o
 .note.GNU-stack
                0x00000000        0x0 disk/libdisk.o
 .note.GNU-stack
                0x00000000        0x0 drivers/block/libblock.o
 .note.GNU-stack
                0x00000000        0x0 drivers/input/libinput.o
 .note.GNU-stack
                0x00000000        0x0 drivers/mmc/libmmc.o
 .note.GNU-stack
                0x00000000        0x0 drivers/mtd/libmtd.o
 .note.GNU-stack
                0x00000000        0x0 drivers/mtd/spi/libspi_flash.o
 .note.GNU-stack
                0x00000000        0x0 drivers/mtd/ubi/libubi.o
 .note.GNU-stack
                0x00000000        0x0 drivers/net/libnet.o
 .note.GNU-stack
                0x00000000        0x0 drivers/pci/libpci.o
 .note.GNU-stack
                0x00000000        0x0 drivers/pcmcia/libpcmcia.o
 .note.GNU-stack
                0x00000000        0x0 drivers/rtc/librtc.o
 .note.GNU-stack
                0x00000000        0x0 drivers/serial/libserial.o
 .note.GNU-stack
                0x00000000        0x0 drivers/usb/eth/libusb_eth.o
 .note.GNU-stack
                0x00000000        0x0 drivers/usb/host/libusb_host.o
 .note.GNU-stack
                0x00000000        0x0 fs/ext4/libext4fs.o
 .note.GNU-stack
                0x00000000        0x0 fs/fat/libfat.o
 .note.GNU-stack
                0x00000000        0x0 fs/jffs2/libjffs2.o
 .note.GNU-stack
                0x00000000        0x0 fs/libfs.o
 .note.GNU-stack
                0x00000000        0x0 fs/ubifs/libubifs.o
 .note.GNU-stack
                0x00000000        0x0 lib/libfdt/libfdt.o
 .note.GNU-stack
                0x00000000        0x0 lib/libgeneric.o
 .note.GNU-stack
                0x00000000        0x0 lib/lzo/liblzo.o
 .note.GNU-stack
                0x00000000        0x0 lib/zlib/libz.o
 .note.GNU-stack
                0x00000000        0x0 net/libnet.o
 .note.GNU-stack
                0x00000000        0x0 board/mv_ebu/a38x/liba38x.o
 .note.GNU-stack
                0x00000000        0x0 drivers/net/sk98lin/libsk98lin.o(uboot_drv.o)
 .note.GNU-stack
                0x00000000        0x0 drivers/net/sk98lin/libsk98lin.o(uboot_skb.o)
 .note.GNU-stack
                0x00000000        0x0 drivers/net/sk98lin/libsk98lin.o(sky2.o)
 .note.GNU-stack
                0x00000000        0x0 drivers/net/sk98lin/libsk98lin.o(skge.o)
 .note.GNU-stack
                0x00000000        0x0 drivers/net/sk98lin/libsk98lin.o(sky2le.o)
 .note.GNU-stack
                0x00000000        0x0 drivers/net/sk98lin/libsk98lin.o(skdim.o)
 .note.GNU-stack
                0x00000000        0x0 drivers/net/sk98lin/libsk98lin.o(skaddr.o)
 .note.GNU-stack
                0x00000000        0x0 drivers/net/sk98lin/libsk98lin.o(skgeinit.o)
 .note.GNU-stack
                0x00000000        0x0 drivers/net/sk98lin/libsk98lin.o(skgesirq.o)
 .note.GNU-stack
                0x00000000        0x0 drivers/net/sk98lin/libsk98lin.o(sktwsi.o)
 .note.GNU-stack
                0x00000000        0x0 drivers/net/sk98lin/libsk98lin.o(sklm80.o)
 .note.GNU-stack
                0x00000000        0x0 drivers/net/sk98lin/libsk98lin.o(skqueue.o)
 .note.GNU-stack
                0x00000000        0x0 drivers/net/sk98lin/libsk98lin.o(skrlmt.o)
 .note.GNU-stack
                0x00000000        0x0 drivers/net/sk98lin/libsk98lin.o(sktimer.o)
 .note.GNU-stack
                0x00000000        0x0 drivers/net/sk98lin/libsk98lin.o(skxmac2.o)
 .note.GNU-stack
                0x00000000        0x0 drivers/net/sk98lin/libsk98lin.o(skgehwt.o)
 .note.GNU-stack
                0x00000000        0x0 /home/kfyao/Marvell/A385_uboot_T3/u-boot-2013.01/arch/arm/lib/eabi_compat.o
 .note.GNU-stack
                0x00000000        0x0 /opt/Marvell_toolchain_2014T2/le/armv7-marvell-linux-gnueabi-softfp_i686_64K_Dev_20131002/bin/../lib/gcc/arm-marvell-linux-gnueabi/4.6.4/libgcc.a(_udivsi3.o)
 .note.GNU-stack
                0x00000000        0x0 /opt/Marvell_toolchain_2014T2/le/armv7-marvell-linux-gnueabi-softfp_i686_64K_Dev_20131002/bin/../lib/gcc/arm-marvell-linux-gnueabi/4.6.4/libgcc.a(_divsi3.o)
 .note.GNU-stack
                0x00000000        0x0 /opt/Marvell_toolchain_2014T2/le/armv7-marvell-linux-gnueabi-softfp_i686_64K_Dev_20131002/bin/../lib/gcc/arm-marvell-linux-gnueabi/4.6.4/libgcc.a(_lshrdi3.o)
 .note.GNU-stack
                0x00000000        0x0 /opt/Marvell_toolchain_2014T2/le/armv7-marvell-linux-gnueabi-softfp_i686_64K_Dev_20131002/bin/../lib/gcc/arm-marvell-linux-gnueabi/4.6.4/libgcc.a(_ashldi3.o)
 .note.GNU-stack
                0x00000000        0x0 /opt/Marvell_toolchain_2014T2/le/armv7-marvell-linux-gnueabi-softfp_i686_64K_Dev_20131002/bin/../lib/gcc/arm-marvell-linux-gnueabi/4.6.4/libgcc.a(_aeabi_uldivmod.o)
 .note.GNU-stack
                0x00000000        0x0 /opt/Marvell_toolchain_2014T2/le/armv7-marvell-linux-gnueabi-softfp_i686_64K_Dev_20131002/bin/../lib/gcc/arm-marvell-linux-gnueabi/4.6.4/libgcc.a(_dvmd_lnx.o)
 .note.GNU-stack
                0x00000000        0x0 /opt/Marvell_toolchain_2014T2/le/armv7-marvell-linux-gnueabi-softfp_i686_64K_Dev_20131002/bin/../lib/gcc/arm-marvell-linux-gnueabi/4.6.4/libgcc.a(bpabi.o)
 .note.GNU-stack
                0x00000000        0x0 /opt/Marvell_toolchain_2014T2/le/armv7-marvell-linux-gnueabi-softfp_i686_64K_Dev_20131002/bin/../lib/gcc/arm-marvell-linux-gnueabi/4.6.4/libgcc.a(_divdi3.o)
 .note.GNU-stack
                0x00000000        0x0 /opt/Marvell_toolchain_2014T2/le/armv7-marvell-linux-gnueabi-softfp_i686_64K_Dev_20131002/bin/../lib/gcc/arm-marvell-linux-gnueabi/4.6.4/libgcc.a(_udivdi3.o)

.debug_line     0x00000000    0x3f89f
 .debug_line    0x00000000      0x112 arch/arm/cpu/armv7/start.o
 .debug_line    0x00000112      0x9bc api/libapi.o
 .debug_line    0x00000ace      0x37f arch/arm/cpu/armv7/libarmv7.o
 .debug_line    0x00000e4d      0x29a arch/arm/cpu/armv7/mvca9/libmvca9.o
 .debug_line    0x000010e7      0xb80 arch/arm/lib/libarm.o
 .debug_line    0x00001c67    0x12f16 board/mv_ebu/common/libmv_ebu.o
 .debug_line    0x00014b7d     0xb2a8 common/libcommon.o
 .debug_line    0x0001fe25      0xc1f disk/libdisk.o
 .debug_line    0x00020a44      0x6e1 drivers/block/libblock.o
 .debug_line    0x00021125      0x2c2 drivers/input/libinput.o
 .debug_line    0x000213e7     0x1027 drivers/mmc/libmmc.o
 .debug_line    0x0002240e     0x107c drivers/mtd/libmtd.o
 .debug_line    0x0002348a      0x788 drivers/mtd/spi/libspi_flash.o
 .debug_line    0x00023c12     0x3b22 drivers/mtd/ubi/libubi.o
 .debug_line    0x00027734     0x104e drivers/net/libnet.o
 .debug_line    0x00028782      0x7cd drivers/pci/libpci.o
 .debug_line    0x00028f4f      0x1e4 drivers/pcmcia/libpcmcia.o
 .debug_line    0x00029133      0x19f drivers/rtc/librtc.o
 .debug_line    0x000292d2      0x267 drivers/serial/libserial.o
 .debug_line    0x00029539      0x5f1 drivers/usb/eth/libusb_eth.o
 .debug_line    0x00029b2a     0x1459 drivers/usb/host/libusb_host.o
 .debug_line    0x0002af83     0x1bc3 fs/ext4/libext4fs.o
 .debug_line    0x0002cb46      0x824 fs/fat/libfat.o
 .debug_line    0x0002d36a      0xe19 fs/jffs2/libjffs2.o
 .debug_line    0x0002e183      0x229 fs/libfs.o
 .debug_line    0x0002e3ac     0x4e45 fs/ubifs/libubifs.o
 .debug_line    0x000331f1     0x1070 lib/libfdt/libfdt.o
 .debug_line    0x00034261     0x246c lib/libgeneric.o
 .debug_line    0x000366cd      0x445 lib/lzo/liblzo.o
 .debug_line    0x00036b12      0xb87 lib/zlib/libz.o
 .debug_line    0x00037699     0x1c76 net/libnet.o
 .debug_line    0x0003930f     0x105e board/mv_ebu/a38x/liba38x.o
 .debug_line    0x0003a36d      0x2ad drivers/net/sk98lin/libsk98lin.o(uboot_drv.o)
 .debug_line    0x0003a61a      0x173 drivers/net/sk98lin/libsk98lin.o(uboot_skb.o)
 .debug_line    0x0003a78d      0x7f7 drivers/net/sk98lin/libsk98lin.o(sky2.o)
 .debug_line    0x0003af84      0xc7b drivers/net/sk98lin/libsk98lin.o(skge.o)
 .debug_line    0x0003bbff      0x26f drivers/net/sk98lin/libsk98lin.o(sky2le.o)
 .debug_line    0x0003be6e      0x2a9 drivers/net/sk98lin/libsk98lin.o(skdim.o)
 .debug_line    0x0003c117      0x71c drivers/net/sk98lin/libsk98lin.o(skaddr.o)
 .debug_line    0x0003c833      0x88e drivers/net/sk98lin/libsk98lin.o(skgeinit.o)
 .debug_line    0x0003d0c1      0x514 drivers/net/sk98lin/libsk98lin.o(skgesirq.o)
 .debug_line    0x0003d5d5      0x48c drivers/net/sk98lin/libsk98lin.o(sktwsi.o)
 .debug_line    0x0003da61      0x230 drivers/net/sk98lin/libsk98lin.o(sklm80.o)
 .debug_line    0x0003dc91      0x250 drivers/net/sk98lin/libsk98lin.o(skqueue.o)
 .debug_line    0x0003dee1      0xcbe drivers/net/sk98lin/libsk98lin.o(skrlmt.o)
 .debug_line    0x0003eb9f      0x295 drivers/net/sk98lin/libsk98lin.o(sktimer.o)
 .debug_line    0x0003ee34      0x708 drivers/net/sk98lin/libsk98lin.o(skxmac2.o)
 .debug_line    0x0003f53c      0x24b drivers/net/sk98lin/libsk98lin.o(skgehwt.o)
 .debug_line    0x0003f787      0x118 /home/kfyao/Marvell/A385_uboot_T3/u-boot-2013.01/arch/arm/lib/eabi_compat.o

.debug_info     0x00000000   0x159503
 .debug_info    0x00000000       0x74 arch/arm/cpu/armv7/start.o
 .debug_info    0x00000074     0x292d api/libapi.o
 .debug_info    0x000029a1      0xbb1 arch/arm/cpu/armv7/libarmv7.o
 .debug_info    0x00003552      0x59a arch/arm/cpu/armv7/mvca9/libmvca9.o
 .debug_info    0x00003aec     0x3a4b arch/arm/lib/libarm.o
 .debug_info    0x00007537    0x3aa3b board/mv_ebu/common/libmv_ebu.o
 .debug_info    0x00041f72    0x353d5 common/libcommon.o
 .debug_info    0x00077347     0x38e7 disk/libdisk.o
 .debug_info    0x0007ac2e     0x3101 drivers/block/libblock.o
 .debug_info    0x0007dd2f      0xe88 drivers/input/libinput.o
 .debug_info    0x0007ebb7     0x51fb drivers/mmc/libmmc.o
 .debug_info    0x00083db2     0x537b drivers/mtd/libmtd.o
 .debug_info    0x0008912d     0x1d2f drivers/mtd/spi/libspi_flash.o
 .debug_info    0x0008ae5c    0x154b0 drivers/mtd/ubi/libubi.o
 .debug_info    0x000a030c     0x6642 drivers/net/libnet.o
 .debug_info    0x000a694e     0x3217 drivers/pci/libpci.o
 .debug_info    0x000a9b65      0x576 drivers/pcmcia/libpcmcia.o
 .debug_info    0x000aa0db      0x4a3 drivers/rtc/librtc.o
 .debug_info    0x000aa57e      0xa1e drivers/serial/libserial.o
 .debug_info    0x000aaf9c     0x2077 drivers/usb/eth/libusb_eth.o
 .debug_info    0x000ad013     0x86a1 drivers/usb/host/libusb_host.o
 .debug_info    0x000b56b4     0x70fb fs/ext4/libext4fs.o
 .debug_info    0x000bc7af     0x1e22 fs/fat/libfat.o
 .debug_info    0x000be5d1     0x3a91 fs/jffs2/libjffs2.o
 .debug_info    0x000c2062      0xd5a fs/libfs.o
 .debug_info    0x000c2dbc    0x3dba2 fs/ubifs/libubifs.o
 .debug_info    0x0010095e     0x4245 lib/libfdt/libfdt.o
 .debug_info    0x00104ba3     0x672d lib/libgeneric.o
 .debug_info    0x0010b2d0      0xb56 lib/lzo/liblzo.o
 .debug_info    0x0010be26     0x1293 lib/zlib/libz.o
 .debug_info    0x0010d0b9     0x79bc net/libnet.o
 .debug_info    0x00114a75     0x338a board/mv_ebu/a38x/liba38x.o
 .debug_info    0x00117dff     0x3c30 drivers/net/sk98lin/libsk98lin.o(uboot_drv.o)
 .debug_info    0x0011ba2f      0x44d drivers/net/sk98lin/libsk98lin.o(uboot_skb.o)
 .debug_info    0x0011be7c     0x4c1d drivers/net/sk98lin/libsk98lin.o(sky2.o)
 .debug_info    0x00120a99     0x5681 drivers/net/sk98lin/libsk98lin.o(skge.o)
 .debug_info    0x0012611a     0x3d6e drivers/net/sk98lin/libsk98lin.o(sky2le.o)
 .debug_info    0x00129e88     0x3bb2 drivers/net/sk98lin/libsk98lin.o(skdim.o)
 .debug_info    0x0012da3a     0x4527 drivers/net/sk98lin/libsk98lin.o(skaddr.o)
 .debug_info    0x00131f61     0x626f drivers/net/sk98lin/libsk98lin.o(skgeinit.o)
 .debug_info    0x001381d0     0x46b6 drivers/net/sk98lin/libsk98lin.o(skgesirq.o)
 .debug_info    0x0013c886     0x40a5 drivers/net/sk98lin/libsk98lin.o(sktwsi.o)
 .debug_info    0x0014092b     0x3928 drivers/net/sk98lin/libsk98lin.o(sklm80.o)
 .debug_info    0x00144253     0x395c drivers/net/sk98lin/libsk98lin.o(skqueue.o)
 .debug_info    0x00147baf     0x4f21 drivers/net/sk98lin/libsk98lin.o(skrlmt.o)
 .debug_info    0x0014cad0     0x3a81 drivers/net/sk98lin/libsk98lin.o(sktimer.o)
 .debug_info    0x00150551     0x511e drivers/net/sk98lin/libsk98lin.o(skxmac2.o)
 .debug_info    0x0015566f     0x3b84 drivers/net/sk98lin/libsk98lin.o(skgehwt.o)
 .debug_info    0x001591f3      0x310 /home/kfyao/Marvell/A385_uboot_T3/u-boot-2013.01/arch/arm/lib/eabi_compat.o

.debug_abbrev   0x00000000    0x2e61b
 .debug_abbrev  0x00000000       0x14 arch/arm/cpu/armv7/start.o
 .debug_abbrev  0x00000014      0x9a4 api/libapi.o
 .debug_abbrev  0x000009b8      0x3c1 arch/arm/cpu/armv7/libarmv7.o
 .debug_abbrev  0x00000d79      0x266 arch/arm/cpu/armv7/mvca9/libmvca9.o
 .debug_abbrev  0x00000fdf      0xdf9 arch/arm/lib/libarm.o
 .debug_abbrev  0x00001dd8     0xacb3 board/mv_ebu/common/libmv_ebu.o
 .debug_abbrev  0x0000ca8b     0x9e44 common/libcommon.o
 .debug_abbrev  0x000168cf      0xbb5 disk/libdisk.o
 .debug_abbrev  0x00017484      0x6b6 drivers/block/libblock.o
 .debug_abbrev  0x00017b3a      0x35b drivers/input/libinput.o
 .debug_abbrev  0x00017e95      0xde2 drivers/mmc/libmmc.o
 .debug_abbrev  0x00018c77      0x98d drivers/mtd/libmtd.o
 .debug_abbrev  0x00019604      0x7f2 drivers/mtd/spi/libspi_flash.o
 .debug_abbrev  0x00019df6     0x26f7 drivers/mtd/ubi/libubi.o
 .debug_abbrev  0x0001c4ed      0x7c5 drivers/net/libnet.o
 .debug_abbrev  0x0001ccb2      0x825 drivers/pci/libpci.o
 .debug_abbrev  0x0001d4d7      0x1bc drivers/pcmcia/libpcmcia.o
 .debug_abbrev  0x0001d693      0x175 drivers/rtc/librtc.o
 .debug_abbrev  0x0001d808      0x2e6 drivers/serial/libserial.o
 .debug_abbrev  0x0001daee      0x5e4 drivers/usb/eth/libusb_eth.o
 .debug_abbrev  0x0001e0d2     0x1089 drivers/usb/host/libusb_host.o
 .debug_abbrev  0x0001f15b      0xf20 fs/ext4/libext4fs.o
 .debug_abbrev  0x0002007b      0x5be fs/fat/libfat.o
 .debug_abbrev  0x00020639      0x8f3 fs/jffs2/libjffs2.o
 .debug_abbrev  0x00020f2c      0x304 fs/libfs.o
 .debug_abbrev  0x00021230     0x457b fs/ubifs/libubifs.o
 .debug_abbrev  0x000257ab      0xd7b lib/libfdt/libfdt.o
 .debug_abbrev  0x00026526     0x1f68 lib/libgeneric.o
 .debug_abbrev  0x0002848e      0x288 lib/lzo/liblzo.o
 .debug_abbrev  0x00028716      0x37a lib/zlib/libz.o
 .debug_abbrev  0x00028a90     0x1ae3 net/libnet.o
 .debug_abbrev  0x0002a573      0x9e2 board/mv_ebu/a38x/liba38x.o
 .debug_abbrev  0x0002af55      0x31f drivers/net/sk98lin/libsk98lin.o(uboot_drv.o)
 .debug_abbrev  0x0002b274      0x18e drivers/net/sk98lin/libsk98lin.o(uboot_skb.o)
 .debug_abbrev  0x0002b402      0x44e drivers/net/sk98lin/libsk98lin.o(sky2.o)
 .debug_abbrev  0x0002b850      0x45f drivers/net/sk98lin/libsk98lin.o(skge.o)
 .debug_abbrev  0x0002bcaf      0x316 drivers/net/sk98lin/libsk98lin.o(sky2le.o)
 .debug_abbrev  0x0002bfc5      0x355 drivers/net/sk98lin/libsk98lin.o(skdim.o)
 .debug_abbrev  0x0002c31a      0x3bd drivers/net/sk98lin/libsk98lin.o(skaddr.o)
 .debug_abbrev  0x0002c6d7      0x45e drivers/net/sk98lin/libsk98lin.o(skgeinit.o)
 .debug_abbrev  0x0002cb35      0x3c8 drivers/net/sk98lin/libsk98lin.o(skgesirq.o)
 .debug_abbrev  0x0002cefd      0x363 drivers/net/sk98lin/libsk98lin.o(sktwsi.o)
 .debug_abbrev  0x0002d260      0x254 drivers/net/sk98lin/libsk98lin.o(sklm80.o)
 .debug_abbrev  0x0002d4b4      0x283 drivers/net/sk98lin/libsk98lin.o(skqueue.o)
 .debug_abbrev  0x0002d737      0x3a0 drivers/net/sk98lin/libsk98lin.o(skrlmt.o)
 .debug_abbrev  0x0002dad7      0x27f drivers/net/sk98lin/libsk98lin.o(sktimer.o)
 .debug_abbrev  0x0002dd56      0x468 drivers/net/sk98lin/libsk98lin.o(skxmac2.o)
 .debug_abbrev  0x0002e1be      0x342 drivers/net/sk98lin/libsk98lin.o(skgehwt.o)
 .debug_abbrev  0x0002e500      0x11b /home/kfyao/Marvell/A385_uboot_T3/u-boot-2013.01/arch/arm/lib/eabi_compat.o

.debug_aranges  0x00000000     0x2300
 .debug_aranges
                0x00000000       0x20 arch/arm/cpu/armv7/start.o
 .debug_aranges
                0x00000020       0xa0 api/libapi.o
 .debug_aranges
                0x000000c0       0x60 arch/arm/cpu/armv7/libarmv7.o
 .debug_aranges
                0x00000120       0x20 arch/arm/cpu/armv7/mvca9/libmvca9.o
 .debug_aranges
                0x00000140       0xe0 arch/arm/lib/libarm.o
 .debug_aranges
                0x00000220      0x940 board/mv_ebu/common/libmv_ebu.o
 .debug_aranges
                0x00000b60      0x7a0 common/libcommon.o
 .debug_aranges
                0x00001300       0x80 disk/libdisk.o
 .debug_aranges
                0x00001380       0x40 drivers/block/libblock.o
 .debug_aranges
                0x000013c0       0x20 drivers/input/libinput.o
 .debug_aranges
                0x000013e0       0x80 drivers/mmc/libmmc.o
 .debug_aranges
                0x00001460       0x60 drivers/mtd/libmtd.o
 .debug_aranges
                0x000014c0       0x80 drivers/mtd/spi/libspi_flash.o
 .debug_aranges
                0x00001540      0x160 drivers/mtd/ubi/libubi.o
 .debug_aranges
                0x000016a0       0x40 drivers/net/libnet.o
 .debug_aranges
                0x000016e0       0x60 drivers/pci/libpci.o
 .debug_aranges
                0x00001740       0x20 drivers/rtc/librtc.o
 .debug_aranges
                0x00001760       0x20 drivers/serial/libserial.o
 .debug_aranges
                0x00001780       0x40 drivers/usb/eth/libusb_eth.o
 .debug_aranges
                0x000017c0       0x80 drivers/usb/host/libusb_host.o
 .debug_aranges
                0x00001840       0xa0 fs/ext4/libext4fs.o
 .debug_aranges
                0x000018e0       0x40 fs/fat/libfat.o
 .debug_aranges
                0x00001920       0xa0 fs/jffs2/libjffs2.o
 .debug_aranges
                0x000019c0       0x20 fs/libfs.o
 .debug_aranges
                0x000019e0      0x220 fs/ubifs/libubifs.o
 .debug_aranges
                0x00001c00       0xe0 lib/libfdt/libfdt.o
 .debug_aranges
                0x00001ce0      0x240 lib/libgeneric.o
 .debug_aranges
                0x00001f20       0x20 lib/lzo/liblzo.o
 .debug_aranges
                0x00001f40       0x20 lib/zlib/libz.o
 .debug_aranges
                0x00001f60      0x100 net/libnet.o
 .debug_aranges
                0x00002060       0x80 board/mv_ebu/a38x/liba38x.o
 .debug_aranges
                0x000020e0       0x20 drivers/net/sk98lin/libsk98lin.o(uboot_drv.o)
 .debug_aranges
                0x00002100       0x20 drivers/net/sk98lin/libsk98lin.o(uboot_skb.o)
 .debug_aranges
                0x00002120       0x20 drivers/net/sk98lin/libsk98lin.o(sky2.o)
 .debug_aranges
                0x00002140       0x20 drivers/net/sk98lin/libsk98lin.o(skge.o)
 .debug_aranges
                0x00002160       0x20 drivers/net/sk98lin/libsk98lin.o(sky2le.o)
 .debug_aranges
                0x00002180       0x20 drivers/net/sk98lin/libsk98lin.o(skdim.o)
 .debug_aranges
                0x000021a0       0x20 drivers/net/sk98lin/libsk98lin.o(skaddr.o)
 .debug_aranges
                0x000021c0       0x20 drivers/net/sk98lin/libsk98lin.o(skgeinit.o)
 .debug_aranges
                0x000021e0       0x20 drivers/net/sk98lin/libsk98lin.o(skgesirq.o)
 .debug_aranges
                0x00002200       0x20 drivers/net/sk98lin/libsk98lin.o(sktwsi.o)
 .debug_aranges
                0x00002220       0x20 drivers/net/sk98lin/libsk98lin.o(sklm80.o)
 .debug_aranges
                0x00002240       0x20 drivers/net/sk98lin/libsk98lin.o(skqueue.o)
 .debug_aranges
                0x00002260       0x20 drivers/net/sk98lin/libsk98lin.o(skrlmt.o)
 .debug_aranges
                0x00002280       0x20 drivers/net/sk98lin/libsk98lin.o(sktimer.o)
 .debug_aranges
                0x000022a0       0x20 drivers/net/sk98lin/libsk98lin.o(skxmac2.o)
 .debug_aranges
                0x000022c0       0x20 drivers/net/sk98lin/libsk98lin.o(skgehwt.o)
 .debug_aranges
                0x000022e0       0x20 /home/kfyao/Marvell/A385_uboot_T3/u-boot-2013.01/arch/arm/lib/eabi_compat.o

.debug_frame    0x00000000    0x1266c
 .debug_frame   0x00000000      0x480 api/libapi.o
 .debug_frame   0x00000480      0x178 arch/arm/cpu/armv7/libarmv7.o
 .debug_frame   0x000005f8       0xec arch/arm/cpu/armv7/mvca9/libmvca9.o
 .debug_frame   0x000006e4      0x4ac arch/arm/lib/libarm.o
 .debug_frame   0x00000b90     0x52d4 board/mv_ebu/common/libmv_ebu.o
 .debug_frame   0x00005e64     0x3a50 common/libcommon.o
 .debug_frame   0x000098b4      0x3f0 disk/libdisk.o
 .debug_frame   0x00009ca4      0x210 drivers/block/libblock.o
 .debug_frame   0x00009eb4       0xf8 drivers/input/libinput.o
 .debug_frame   0x00009fac      0x460 drivers/mmc/libmmc.o
 .debug_frame   0x0000a40c      0x5e4 drivers/mtd/libmtd.o
 .debug_frame   0x0000a9f0      0x23c drivers/mtd/spi/libspi_flash.o
 .debug_frame   0x0000ac2c      0xbe8 drivers/mtd/ubi/libubi.o
 .debug_frame   0x0000b814      0x4c0 drivers/net/libnet.o
 .debug_frame   0x0000bcd4      0x590 drivers/pci/libpci.o
 .debug_frame   0x0000c264       0x74 drivers/rtc/librtc.o
 .debug_frame   0x0000c2d8      0x17c drivers/serial/libserial.o
 .debug_frame   0x0000c454      0x20c drivers/usb/eth/libusb_eth.o
 .debug_frame   0x0000c660      0x580 drivers/usb/host/libusb_host.o
 .debug_frame   0x0000cbe0      0x69c fs/ext4/libext4fs.o
 .debug_frame   0x0000d27c      0x2a8 fs/fat/libfat.o
 .debug_frame   0x0000d524      0x33c fs/jffs2/libjffs2.o
 .debug_frame   0x0000d860       0xec fs/libfs.o
 .debug_frame   0x0000d94c     0x11cc fs/ubifs/libubifs.o
 .debug_frame   0x0000eb18      0x894 lib/libfdt/libfdt.o
 .debug_frame   0x0000f3ac      0xb44 lib/libgeneric.o
 .debug_frame   0x0000fef0       0x60 lib/lzo/liblzo.o
 .debug_frame   0x0000ff50      0x11c lib/zlib/libz.o
 .debug_frame   0x0001006c      0xaa8 net/libnet.o
 .debug_frame   0x00010b14      0x3a4 board/mv_ebu/a38x/liba38x.o
 .debug_frame   0x00010eb8       0xb4 drivers/net/sk98lin/libsk98lin.o(uboot_drv.o)
 .debug_frame   0x00010f6c       0x6c drivers/net/sk98lin/libsk98lin.o(uboot_skb.o)
 .debug_frame   0x00010fd8      0x1a4 drivers/net/sk98lin/libsk98lin.o(sky2.o)
 .debug_frame   0x0001117c      0x350 drivers/net/sk98lin/libsk98lin.o(skge.o)
 .debug_frame   0x000114cc       0x68 drivers/net/sk98lin/libsk98lin.o(sky2le.o)
 .debug_frame   0x00011534       0x9c drivers/net/sk98lin/libsk98lin.o(skdim.o)
 .debug_frame   0x000115d0      0x184 drivers/net/sk98lin/libsk98lin.o(skaddr.o)
 .debug_frame   0x00011754      0x260 drivers/net/sk98lin/libsk98lin.o(skgeinit.o)
 .debug_frame   0x000119b4      0x188 drivers/net/sk98lin/libsk98lin.o(skgesirq.o)
 .debug_frame   0x00011b3c      0x11c drivers/net/sk98lin/libsk98lin.o(sktwsi.o)
 .debug_frame   0x00011c58       0x2c drivers/net/sk98lin/libsk98lin.o(sklm80.o)
 .debug_frame   0x00011c84       0x64 drivers/net/sk98lin/libsk98lin.o(skqueue.o)
 .debug_frame   0x00011ce8      0x484 drivers/net/sk98lin/libsk98lin.o(skrlmt.o)
 .debug_frame   0x0001216c       0xa8 drivers/net/sk98lin/libsk98lin.o(sktimer.o)
 .debug_frame   0x00012214      0x294 drivers/net/sk98lin/libsk98lin.o(skxmac2.o)
 .debug_frame   0x000124a8       0x7c drivers/net/sk98lin/libsk98lin.o(skgehwt.o)
 .debug_frame   0x00012524       0x48 /home/kfyao/Marvell/A385_uboot_T3/u-boot-2013.01/arch/arm/lib/eabi_compat.o
 .debug_frame   0x0001256c       0x20 /opt/Marvell_toolchain_2014T2/le/armv7-marvell-linux-gnueabi-softfp_i686_64K_Dev_20131002/bin/../lib/gcc/arm-marvell-linux-gnueabi/4.6.4/libgcc.a(_udivsi3.o)
 .debug_frame   0x0001258c       0x20 /opt/Marvell_toolchain_2014T2/le/armv7-marvell-linux-gnueabi-softfp_i686_64K_Dev_20131002/bin/../lib/gcc/arm-marvell-linux-gnueabi/4.6.4/libgcc.a(_divsi3.o)
 .debug_frame   0x000125ac       0x50 /opt/Marvell_toolchain_2014T2/le/armv7-marvell-linux-gnueabi-softfp_i686_64K_Dev_20131002/bin/../lib/gcc/arm-marvell-linux-gnueabi/4.6.4/libgcc.a(bpabi.o)
 .debug_frame   0x000125fc       0x38 /opt/Marvell_toolchain_2014T2/le/armv7-marvell-linux-gnueabi-softfp_i686_64K_Dev_20131002/bin/../lib/gcc/arm-marvell-linux-gnueabi/4.6.4/libgcc.a(_divdi3.o)
 .debug_frame   0x00012634       0x38 /opt/Marvell_toolchain_2014T2/le/armv7-marvell-linux-gnueabi-softfp_i686_64K_Dev_20131002/bin/../lib/gcc/arm-marvell-linux-gnueabi/4.6.4/libgcc.a(_udivdi3.o)

.debug_str      0x00000000    0x26eae
 .debug_str     0x00000000      0x843 api/libapi.o
                               0x144b (size before relaxing)
 .debug_str     0x00000843      0x1d8 arch/arm/cpu/armv7/libarmv7.o
                                0x808 (size before relaxing)
 .debug_str     0x00000a1b      0x163 arch/arm/cpu/armv7/mvca9/libmvca9.o
                                0x364 (size before relaxing)
 .debug_str     0x00000b7e     0x1555 arch/arm/lib/libarm.o
                               0x3273 (size before relaxing)
 .debug_str     0x000020d3     0xd639 board/mv_ebu/common/libmv_ebu.o
                              0x22543 (size before relaxing)
 .debug_str     0x0000f70c     0x6999 common/libcommon.o
                              0x1ad26 (size before relaxing)
 .debug_str     0x000160a5      0x904 disk/libdisk.o
                               0x18c7 (size before relaxing)
 .debug_str     0x000169a9     0x13e0 drivers/block/libblock.o
                               0x28c0 (size before relaxing)
 .debug_str     0x00017d89      0x32f drivers/input/libinput.o
                                0x5a1 (size before relaxing)
 .debug_str     0x000180b8      0x54b drivers/mmc/libmmc.o
                               0x193a (size before relaxing)
 .debug_str     0x00018603      0x893 drivers/mtd/libmtd.o
                               0x187c (size before relaxing)
 .debug_str     0x00018e96      0x349 drivers/mtd/spi/libspi_flash.o
                                0xd7f (size before relaxing)
 .debug_str     0x000191df      0xe37 drivers/mtd/ubi/libubi.o
                               0x82c2 (size before relaxing)
 .debug_str     0x0001a016     0x1338 drivers/net/libnet.o
                               0x1a1f (size before relaxing)
 .debug_str     0x0001b34e      0x568 drivers/pci/libpci.o
                               0x1104 (size before relaxing)
 .debug_str     0x0001b8b6       0x5d drivers/pcmcia/libpcmcia.o
                                0x423 (size before relaxing)
 .debug_str     0x0001b913       0x83 drivers/rtc/librtc.o
                                0x2a6 (size before relaxing)
 .debug_str     0x0001b996      0x106 drivers/serial/libserial.o
                                0x4c5 (size before relaxing)
 .debug_str     0x0001ba9c      0x322 drivers/usb/eth/libusb_eth.o
                                0xfe0 (size before relaxing)
 .debug_str     0x0001bdbe      0xed7 drivers/usb/host/libusb_host.o
                               0x3e6e (size before relaxing)
 .debug_str     0x0001cc95     0x1398 fs/ext4/libext4fs.o
                               0x2eff (size before relaxing)
 .debug_str     0x0001e02d      0x50b fs/fat/libfat.o
                                0xb6d (size before relaxing)
 .debug_str     0x0001e538      0x839 fs/jffs2/libjffs2.o
                               0x125b (size before relaxing)
 .debug_str     0x0001ed71       0xfb fs/libfs.o
                                0x5a8 (size before relaxing)
 .debug_str     0x0001ee6c     0x1944 fs/ubifs/libubifs.o
                              0x1aed6 (size before relaxing)
 .debug_str     0x000207b0      0x850 lib/libfdt/libfdt.o
                               0x1552 (size before relaxing)
 .debug_str     0x00021000      0x797 lib/libgeneric.o
                               0x2a75 (size before relaxing)
 .debug_str     0x00021797      0x174 lib/lzo/liblzo.o
                                0x400 (size before relaxing)
 .debug_str     0x0002190b      0x2a9 lib/zlib/libz.o
                                0x69a (size before relaxing)
 .debug_str     0x00021bb4     0x1283 net/libnet.o
                               0x50fb (size before relaxing)
 .debug_str     0x00022e37      0x3eb board/mv_ebu/a38x/liba38x.o
                               0x246a (size before relaxing)
 .debug_str     0x00023222     0x21bc drivers/net/sk98lin/libsk98lin.o(uboot_drv.o)
                               0x268b (size before relaxing)
 .debug_str     0x000253de       0x56 drivers/net/sk98lin/libsk98lin.o(uboot_skb.o)
                                0x280 (size before relaxing)
 .debug_str     0x00025434      0x3c7 drivers/net/sk98lin/libsk98lin.o(sky2.o)
                               0x2a4f (size before relaxing)
 .debug_str     0x000257fb      0x505 drivers/net/sk98lin/libsk98lin.o(skge.o)
                               0x2d16 (size before relaxing)
 .debug_str     0x00025d00       0xcd drivers/net/sk98lin/libsk98lin.o(sky2le.o)
                               0x2619 (size before relaxing)
 .debug_str     0x00025dcd      0x138 drivers/net/sk98lin/libsk98lin.o(skdim.o)
                               0x2687 (size before relaxing)
 .debug_str     0x00025f05      0x161 drivers/net/sk98lin/libsk98lin.o(skaddr.o)
                               0x2702 (size before relaxing)
 .debug_str     0x00026066      0x384 drivers/net/sk98lin/libsk98lin.o(skgeinit.o)
                               0x295e (size before relaxing)
 .debug_str     0x000263ea      0x131 drivers/net/sk98lin/libsk98lin.o(skgesirq.o)
                               0x26be (size before relaxing)
 .debug_str     0x0002651b      0x138 drivers/net/sk98lin/libsk98lin.o(sktwsi.o)
                               0x26b2 (size before relaxing)
 .debug_str     0x00026653       0x1a drivers/net/sk98lin/libsk98lin.o(sklm80.o)
                               0x257c (size before relaxing)
 .debug_str     0x0002666d       0x35 drivers/net/sk98lin/libsk98lin.o(skqueue.o)
                               0x2592 (size before relaxing)
 .debug_str     0x000266a2      0x474 drivers/net/sk98lin/libsk98lin.o(skrlmt.o)
                               0x2a6b (size before relaxing)
 .debug_str     0x00026b16       0x66 drivers/net/sk98lin/libsk98lin.o(sktimer.o)
                               0x25d5 (size before relaxing)
 .debug_str     0x00026b7c      0x29e drivers/net/sk98lin/libsk98lin.o(skxmac2.o)
                               0x28a2 (size before relaxing)
 .debug_str     0x00026e1a       0x4b drivers/net/sk98lin/libsk98lin.o(skgehwt.o)
                               0x25af (size before relaxing)
 .debug_str     0x00026e65       0x49 /home/kfyao/Marvell/A385_uboot_T3/u-boot-2013.01/arch/arm/lib/eabi_compat.o
                                0x24a (size before relaxing)

.debug_loc      0x00000000    0x99131
 .debug_loc     0x00000000     0x118a api/libapi.o
 .debug_loc     0x0000118a      0x15d arch/arm/cpu/armv7/libarmv7.o
 .debug_loc     0x000012e7      0x24c arch/arm/cpu/armv7/mvca9/libmvca9.o
 .debug_loc     0x00001533      0xc53 arch/arm/lib/libarm.o
 .debug_loc     0x00002186    0x20d91 board/mv_ebu/common/libmv_ebu.o
 .debug_loc     0x00022f17    0x1de1f common/libcommon.o
 .debug_loc     0x00040d36     0x18fe disk/libdisk.o
 .debug_loc     0x00042634     0x1798 drivers/block/libblock.o
 .debug_loc     0x00043dcc      0x797 drivers/input/libinput.o
 .debug_loc     0x00044563     0x2d09 drivers/mmc/libmmc.o
 .debug_loc     0x0004726c     0x3ce0 drivers/mtd/libmtd.o
 .debug_loc     0x0004af4c      0xe00 drivers/mtd/spi/libspi_flash.o
 .debug_loc     0x0004bd4c     0x8dcb drivers/mtd/ubi/libubi.o
 .debug_loc     0x00054b17     0x4fd6 drivers/net/libnet.o
 .debug_loc     0x00059aed     0x2372 drivers/pci/libpci.o
 .debug_loc     0x0005be5f      0x224 drivers/rtc/librtc.o
 .debug_loc     0x0005c083      0x3fc drivers/serial/libserial.o
 .debug_loc     0x0005c47f      0xc92 drivers/usb/eth/libusb_eth.o
 .debug_loc     0x0005d111     0x41ff drivers/usb/host/libusb_host.o
 .debug_loc     0x00061310     0x60f6 fs/ext4/libext4fs.o
 .debug_loc     0x00067406     0x1ca2 fs/fat/libfat.o
 .debug_loc     0x000690a8     0x3048 fs/jffs2/libjffs2.o
 .debug_loc     0x0006c0f0      0x580 fs/libfs.o
 .debug_loc     0x0006c670     0xde29 fs/ubifs/libubifs.o
 .debug_loc     0x0007a499     0x3906 lib/libfdt/libfdt.o
 .debug_loc     0x0007dd9f     0x4e9f lib/libgeneric.o
 .debug_loc     0x00082c3e      0xd38 lib/lzo/liblzo.o
 .debug_loc     0x00083976     0x22ed lib/zlib/libz.o
 .debug_loc     0x00085c63     0x3e0a net/libnet.o
 .debug_loc     0x00089a6d     0x1914 board/mv_ebu/a38x/liba38x.o
 .debug_loc     0x0008b381      0x332 drivers/net/sk98lin/libsk98lin.o(uboot_drv.o)
 .debug_loc     0x0008b6b3       0xfd drivers/net/sk98lin/libsk98lin.o(uboot_skb.o)
 .debug_loc     0x0008b7b0     0x1642 drivers/net/sk98lin/libsk98lin.o(sky2.o)
 .debug_loc     0x0008cdf2     0x2299 drivers/net/sk98lin/libsk98lin.o(skge.o)
 .debug_loc     0x0008f08b      0x401 drivers/net/sk98lin/libsk98lin.o(sky2le.o)
 .debug_loc     0x0008f48c      0x414 drivers/net/sk98lin/libsk98lin.o(skdim.o)
 .debug_loc     0x0008f8a0      0xf74 drivers/net/sk98lin/libsk98lin.o(skaddr.o)
 .debug_loc     0x00090814     0x246e drivers/net/sk98lin/libsk98lin.o(skgeinit.o)
 .debug_loc     0x00092c82     0x12a2 drivers/net/sk98lin/libsk98lin.o(skgesirq.o)
 .debug_loc     0x00093f24      0x971 drivers/net/sk98lin/libsk98lin.o(sktwsi.o)
 .debug_loc     0x00094895      0x156 drivers/net/sk98lin/libsk98lin.o(sklm80.o)
 .debug_loc     0x000949eb      0x1df drivers/net/sk98lin/libsk98lin.o(skqueue.o)
 .debug_loc     0x00094bca     0x253b drivers/net/sk98lin/libsk98lin.o(skrlmt.o)
 .debug_loc     0x00097105      0x3c0 drivers/net/sk98lin/libsk98lin.o(sktimer.o)
 .debug_loc     0x000974c5     0x1a08 drivers/net/sk98lin/libsk98lin.o(skxmac2.o)
 .debug_loc     0x00098ecd      0x226 drivers/net/sk98lin/libsk98lin.o(skgehwt.o)
 .debug_loc     0x000990f3       0x3e /home/kfyao/Marvell/A385_uboot_T3/u-boot-2013.01/arch/arm/lib/eabi_compat.o

.debug_ranges   0x00000000     0xe0e0
 .debug_ranges  0x00000000       0x48 api/libapi.o
 .debug_ranges  0x00000048       0xc0 arch/arm/lib/libarm.o
 .debug_ranges  0x00000108     0x2488 board/mv_ebu/common/libmv_ebu.o
 .debug_ranges  0x00002590     0x2020 common/libcommon.o
 .debug_ranges  0x000045b0      0x2d0 disk/libdisk.o
 .debug_ranges  0x00004880      0x200 drivers/block/libblock.o
 .debug_ranges  0x00004a80      0x118 drivers/input/libinput.o
 .debug_ranges  0x00004b98      0x508 drivers/mmc/libmmc.o
 .debug_ranges  0x000050a0      0x8e8 drivers/mtd/libmtd.o
 .debug_ranges  0x00005988      0x1b0 drivers/mtd/spi/libspi_flash.o
 .debug_ranges  0x00005b38     0x1068 drivers/mtd/ubi/libubi.o
 .debug_ranges  0x00006ba0      0xc78 drivers/net/libnet.o
 .debug_ranges  0x00007818       0xb8 drivers/pci/libpci.o
 .debug_ranges  0x000078d0       0x30 drivers/serial/libserial.o
 .debug_ranges  0x00007900      0x288 drivers/usb/eth/libusb_eth.o
 .debug_ranges  0x00007b88      0x498 drivers/usb/host/libusb_host.o
 .debug_ranges  0x00008020      0x9f8 fs/ext4/libext4fs.o
 .debug_ranges  0x00008a18      0x168 fs/fat/libfat.o
 .debug_ranges  0x00008b80      0xa30 fs/jffs2/libjffs2.o
 .debug_ranges  0x000095b0       0x30 fs/libfs.o
 .debug_ranges  0x000095e0     0x2188 fs/ubifs/libubifs.o
 .debug_ranges  0x0000b768      0x6e8 lib/libfdt/libfdt.o
 .debug_ranges  0x0000be50      0x478 lib/libgeneric.o
 .debug_ranges  0x0000c2c8      0x2a0 lib/lzo/liblzo.o
 .debug_ranges  0x0000c568       0x50 lib/zlib/libz.o
 .debug_ranges  0x0000c5b8      0x800 net/libnet.o
 .debug_ranges  0x0000cdb8       0x78 board/mv_ebu/a38x/liba38x.o
 .debug_ranges  0x0000ce30      0x2e0 drivers/net/sk98lin/libsk98lin.o(sky2.o)
 .debug_ranges  0x0000d110      0x480 drivers/net/sk98lin/libsk98lin.o(skge.o)
 .debug_ranges  0x0000d590       0x60 drivers/net/sk98lin/libsk98lin.o(sky2le.o)
 .debug_ranges  0x0000d5f0       0xe0 drivers/net/sk98lin/libsk98lin.o(skaddr.o)
 .debug_ranges  0x0000d6d0      0x400 drivers/net/sk98lin/libsk98lin.o(skgeinit.o)
 .debug_ranges  0x0000dad0      0x1d8 drivers/net/sk98lin/libsk98lin.o(skgesirq.o)
 .debug_ranges  0x0000dca8       0xf0 drivers/net/sk98lin/libsk98lin.o(sktwsi.o)
 .debug_ranges  0x0000dd98       0x20 drivers/net/sk98lin/libsk98lin.o(sklm80.o)
 .debug_ranges  0x0000ddb8      0x138 drivers/net/sk98lin/libsk98lin.o(skrlmt.o)
 .debug_ranges  0x0000def0      0x1c0 drivers/net/sk98lin/libsk98lin.o(skxmac2.o)
 .debug_ranges  0x0000e0b0       0x30 drivers/net/sk98lin/libsk98lin.o(skgehwt.o)
